((dp0
S'arm_dbg_args'
p1
S'-via:"C:\\Users\\ET\\Documents\\Universal Story\\Universal Story\\jj\\constructs\\build_constructs_vc10\\Constructs_vc10_arm_debug.via" -qemu'
p2
sS'game-icf'
p3
S''
p4
sS'dist'
p5
NsS'module_path_append'
p6
NsS'global_path'
p7
S'c:\\users\\et\\documents\\universal story\\universal story\\jj'
p8
sS'system_path'
p9
S'c:\\marmalade\\5.2\\s3e\\makefile_builder'
p10
sS'arm_rel_rtsm_args'
p11
S'-via:"C:\\Users\\ET\\Documents\\Universal Story\\Universal Story\\jj\\constructs\\build_constructs_vc10\\Constructs_vc10_arm_release.via" -qemu'
p12
sS'amd64'
p13
NsS'debug'
p14
NsS'line-width'
p15
I80
sS'gcc_dbg_args'
p16
S'-via:"C:\\Users\\ET\\Documents\\Universal Story\\Universal Story\\jj\\constructs\\build_constructs_vc10\\Constructs_vc10_gcc_debug.via" -qemu'
p17
sS'x86_dbg_exe'
p18
S'c:/marmalade/5.2/s3e\\win32\\s3e_simulator_debug.exe'
p19
sS'disable-runtime-checks'
p20
NsS'no-make'
p21
NsS'optimise-size'
p22
NsS'output-name-debug'
p23
g4
sS'arm-fpu'
p24
g4
sS'psp'
p25
NsS'proj_name'
p26
S'Constructs_vc10'
p27
sS'rvct-version'
p28
S'none'
p29
sS'compiler'
p30
g4
sS'execute'
p31
NsS'compile-static'
p32
NsS'msvc-project'
p33
NsS'buildenv'
p34
g4
sS'release'
p35
NsS'module_path'
p36
NsS'using_perforce'
p37
I00
sS'shared-arm-lib'
p38
NsS'arm-cpu'
p39
g4
sS'compile-thumb'
p40
NsS'no-ide'
p41
NsS'msvc-version'
p42
S'6.0'
p43
sS'arm'
p44
NsS'builddir'
p45
g4
sS'compile-debug-as-release'
p46
I0
sS'brief'
p47
NsS'dll'
p48
NsS'version'
p49
NsS'ccache'
p50
I0
sS'offline'
p51
NsS'ios-version'
p52
g4
sS'quick'
p53
NsS'gcc_rel_rtsm_args'
p54
S'-via:"C:\\Users\\ET\\Documents\\Universal Story\\Universal Story\\jj\\constructs\\build_constructs_vc10\\Constructs_vc10_gcc_release.via" -qemu'
p55
sS'done_defaults'
p56
I1
sS's3e-data-dir'
p57
S'C:/Users/ET/Documents/Universal Story/Universal Story/jj/constructs/data'
p58
sS'enable-exceptions'
p59
NsS'osx-dll'
p60
NsS'extension'
p61
g4
sS'no-vc6'
p62
NsS'non-interactive'
p63
NsS'win32-console'
p64
NsS'nds'
p65
NsS'dist-format'
p66
g4
sS's3e-force-arch'
p67
NsS'dump_defines'
p68
NsS'verbose'
p69
I0
sS'psp-minis'
p70
NsS'gcc-version'
p71
g4
sS'x86_dbg_args'
p72
S'-via:"C:\\Users\\ET\\Documents\\Universal Story\\Universal Story\\jj\\constructs\\build_constructs_vc10\\Constructs_vc10_debug.via"'
p73
sS'arm-debugger'
p74
g4
sS'use_temp_extension'
p75
NsS'log'
p76
NsS'no-strip'
p77
NsS'rebuild'
p78
NsS'win32-simulator-dll'
p79
NsS'strict'
p80
NsS'mips_dbg_args'
p81
S'../../tools/DeployTool/DeployTool.exe --dir "C:\\Users\\ET\\Documents\\Universal Story\\Universal Story\\jj\\constructs\\build_constructs_vc10"'
p82
sS'enable-global-path'
p83
NsS'iphone'
p84
NsS'dist-dir'
p85
g4
sS'jflags'
p86
NsS'external-compiler'
p87
NsS'no-distcc'
p88
NsS'preinclude'
p89
NsS'using_sdk'
p90
I01
sS'nologo'
p91
NsS'warn-level'
p92
I2
sS'mips_dbg_exe'
p93
S'c:\\marmalade\\5.2\\s3e\\makefile_builder\\tool_launcher.exe'
p94
sS'mkb_in'
p95
S'C:/Users/ET/Documents/Universal Story/Universal Story/jj/constructs/Constructs.mkb'
p96
sS'arm_dbg_exe'
p97
S'c:/marmalade/5.2/s3e\\bin\\armdebug.exe'
p98
sS'list-targets'
p99
NsS'arm_rel_exe'
p100
g94
sS'arm_rel_args'
p101
g82
sS'distcc'
p102
NsS'default-buildenv'
p103
S'VC10'
p104
sS'x86_rel_exe'
p105
g19
sS'preprocess-java'
p106
NsS'mips_rel_args'
p107
g82
sS'defines'
p108
NsS'lib'
p109
NsS'global_argv'
p110
(lp111
S'C:\\Marmalade\\5.2\\s3e\\makefile_builder\\mkb.py'
p112
aS'C:\\Users\\ET\\Documents\\Universal Story\\Universal Story\\jj\\constructs\\Constructs.mkb'
p113
asS'make'
p114
NsS'optimise-speed'
p115
NsS'internal'
p116
NsS'enable-stdinc'
p117
NsS'deploy-only'
p118
NsS'x86'
p119
NsS'deploy'
p120
g4
sS'x86_run_exe'
p121
S'c:/marmalade/5.2/s3e\\win32\\s3e_console.exe'
p122
sS'x86_rel_args'
p123
S'-via:"C:\\Users\\ET\\Documents\\Universal Story\\Universal Story\\jj\\constructs\\build_constructs_vc10\\Constructs_vc10_release.via"'
p124
sS'gcc_rel_args'
p125
g82
sS'mips'
p126
NsS'incredibuild'
p127
NsS'strict-compile'
p128
NsS'use-auto-subdirs'
p129
NsS'mips_rel_exe'
p130
g94
sS'app-icf'
p131
g4
sS'deployargs'
p132
NsS'mkf_in'
p133
(lp134
S'c:\\marmalade\\5.2\\modules\\iwutil\\iwutil.mkf'
p135
aS'c:\\marmalade\\5.2\\modules\\derbh\\derbh.mkf'
p136
aS'c:\\marmalade\\5.2\\modules\\iwgx\\iwgx.mkf'
p137
aS'c:\\marmalade\\5.2\\modules\\iwgeom\\iwgeom.mkf'
p138
aS'c:\\marmalade\\5.2\\modules\\iwresmanager\\iwresmanager.mkf'
p139
aS'c:\\marmalade\\5.2\\modules\\iwgl\\iwgl.mkf'
p140
aS'c:\\marmalade\\5.2\\modules\\iwgraphics\\iwgraphics.mkf'
p141
aS'c:\\marmalade\\5.2\\modules\\iw2d\\iw2d.mkf'
p142
aS'c:\\marmalade\\5.2\\modules\\iwgxfont\\iwgxfont.mkf'
p143
asS'strict-mkb'
p144
NsS'executeargs'
p145
NsS'clean'
p146
NsS'no-asm'
p147
NsS'output-name'
p148
g4
sS'no-modules'
p149
NsS'find_define'
p150
g4
s(dp151
S'c:\\marmalade\\5.2\\s3e\\makefile_builder\\templates\\win32_dsw.pyc'
p152
F1333407746.0
sS'c:\\marmalade\\5.2\\s3e\\makefile_builder\\mkb_util.pyc'
p153
F1333407746.0
sS'c:\\marmalade\\5.2\\s3e\\makefile_builder\\plugins\\xcode4_schememanagement.py'
p154
F1333397672.0
sS'c:\\marmalade\\5.2\\s3e\\makefile_builder\\plugins\\VisualStudioEmitter.pyc'
p155
F1333407746.0
sS'c:\\marmalade\\5.2\\s3e\\makefile_builder\\templates\\xcode4_DeployTool.xcscheme'
p156
F1333397672.0
sS'c:\\marmalade\\5.2\\s3e\\makefile_builder\\templates\\linker_script'
p157
F1333397672.0
sS'c:\\marmalade\\5.2\\s3e\\makefile_builder\\mkb_parser.pyc'
p158
F1333407746.0
sS'c:\\marmalade\\5.2\\s3e\\makefile_builder\\docs\\parse_options.pyc'
p159
F1333407748.0
sS'c:\\marmalade\\5.2\\s3e\\makefile_builder\\plugins\\s3e_vc6.pyc'
p160
F1333407746.0
sS'c:\\marmalade\\5.2\\s3e\\makefile_builder\\docs\\deprecated.defines.txt'
p161
F1333397670.0
sS'c:\\marmalade\\5.2\\s3e\\makefile_builder\\config.txt'
p162
F1333643927.353415
sS'c:\\marmalade\\5.2\\s3e\\makefile_builder\\templates\\win32_sln.pyc'
p163
F1333407746.0
sS'c:\\marmalade\\5.2\\s3e\\makefile_builder\\templates\\template.suo'
p164
F1333397672.0
sS'c:\\marmalade\\5.2\\s3e\\makefile_builder\\plugins\\vc6_utils.pyc'
p165
F1333407746.0
sS'c:\\marmalade\\5.2\\s3e\\makefile_builder\\templates\\Info.plist'
p166
F1333397672.0
sS'c:\\marmalade\\5.2\\s3e\\makefile_builder\\mkb_main.pyc'
p167
F1333407746.0
sS'c:\\marmalade\\5.2\\s3e\\makefile_builder\\docs\\deprecated.options.txt'
p168
F1333397670.0
sS'c:\\marmalade\\5.2\\s3e\\makefile_builder\\templates\\rvct_linker_script'
p169
F1333397672.0
sS'c:\\marmalade\\5.2\\s3e\\makefile_builder\\plugins\\linux_scons.pyc'
p170
F1333407746.0
sS'c:\\marmalade\\5.2\\s3e\\makefile_builder\\plugins\\java.pyc'
p171
F1333407746.0
sS'c:\\marmalade\\5.2\\s3e\\makefile_builder\\docs\\mkb.defines.txt'
p172
F1333397670.0
sS'c:\\marmalade\\5.2\\s3e\\makefile_builder\\templates\\mips_linker_script'
p173
F1333397672.0
sS'c:\\marmalade\\5.2\\s3e\\makefile_builder\\templates\\vc6_opt.pyc'
p174
F1333407746.0
sS'c:\\marmalade\\5.2\\s3e\\makefile_builder\\templates'
p175
F1333643879.4496751
sS'c:\\marmalade\\5.2\\s3e\\makefile_builder\\templates\\xcode4.xcscheme'
p176
F1333397672.0
sS'c:\\marmalade\\5.2\\s3e\\makefile_builder\\templates\\MainWindow.xib'
p177
F1333397672.0
sS'c:\\marmalade\\5.2\\s3e\\makefile_builder\\plugins\\MakeEmitter.pyc'
p178
F1333407746.0
sS'c:\\marmalade\\5.2\\s3e\\makefile_builder\\templates\\win32_vcxproj.pyc'
p179
F1333407746.0
sS'c:\\marmalade\\5.2\\s3e\\makefile_builder\\templates\\win32_dsp.pyc'
p180
F1333407746.0
sS'c:\\marmalade\\5.2\\s3e\\makefile_builder\\plugins\\s3e_xcode.pyc'
p181
F1333643947.9385924
sS'c:\\marmalade\\5.2\\s3e\\makefile_builder\\extensions\\make_dist.py'
p182
F1333397670.0
sS'c:\\marmalade\\5.2\\s3e\\makefile_builder\\templates\\make.py'
p183
F1333397672.0
sS'c:\\marmalade\\5.2\\s3e\\makefile_builder\\docs\\options.txt'
p184
F1333397670.0
sS'c:\\marmalade\\5.2\\s3e\\makefile_builder\\plugins\\s3e_xcode.py'
p185
F1333397670.0
sS'c:\\marmalade\\5.2\\s3e\\makefile_builder\\mkb.py'
p186
F1333397670.0
sS'c:\\marmalade\\5.2\\s3e\\makefile_builder\\templates\\qmake_user.py'
p187
F1333397672.0
sS'c:\\marmalade\\5.2\\s3e\\makefile_builder\\plugins\\XcodeEmitter.pyc'
p188
F1333643947.9075906
sS'c:\\marmalade\\5.2\\s3e\\makefile_builder\\tool_launcher.exe'
p189
F1333399026.0
sS'c:\\marmalade\\5.2\\s3e\\makefile_builder\\plugins\\xcode4_schememanagement.pyc'
p190
F1333643947.9115908
sS'c:\\marmalade\\5.2\\s3e\\makefile_builder\\plugins\\s3e_qmake.py'
p191
F1333397670.0
sS'c:\\marmalade\\5.2\\s3e\\makefile_builder\\plugins\\win32_vc6.pyc'
p192
F1333407746.0
sS'c:\\marmalade\\5.2\\s3e\\makefile_builder\\templates\\win32_vcxproj_filters.pyc'
p193
F1333407746.0
sS'c:\\marmalade\\5.2\\s3e\\makefile_builder\\templates\\vc7_suo.pyc'
p194
F1333407746.0
sS'c:\\marmalade\\5.2\\s3e\\makefile_builder\\docs'
p195
F1333643879.482677
sS'c:\\marmalade\\5.2\\s3e\\makefile_builder\\plugins\\iphone.pyc'
p196
F1333407746.0
sS'c:\\marmalade\\5.2\\s3e\\makefile_builder\\plugins\\deploy.pyc'
p197
F1333407746.0
sS'c:\\marmalade\\5.2\\s3e\\makefile_builder\\templates\\qmake.py'
p198
F1333397672.0
sS'c:\\marmalade\\5.2\\s3e\\makefile_builder\\mkb_launcher.exe'
p199
F1333399024.0
sS'c:\\marmalade\\5.2\\s3e\\makefile_builder\\templates\\vc8_user.pyc'
p200
F1333407746.0
sS'c:\\marmalade\\5.2\\s3e\\makefile_builder\\extensions'
p201
F1333643879.4516754
sS'c:\\marmalade\\5.2\\s3e\\makefile_builder\\plugins\\S3EEmitter.pyc'
p202
F1333407746.0
sS'c:\\marmalade\\5.2\\s3e\\makefile_builder\\plugins\\Emitter.pyc'
p203
F1333407746.0
sS'c:\\marmalade\\5.2\\s3e\\makefile_builder\\plugins\\XcodeEmitter.py'
p204
F1333397670.0
sS'c:\\marmalade\\5.2\\s3e\\makefile_builder\\templates\\xcode.py'
p205
F1333397672.0
sS'c:\\marmalade\\5.2\\s3e\\makefile_builder\\plugins\\s3e_scons.pyc'
p206
F1333407746.0
sS'c:\\marmalade\\5.2\\s3e\\makefile_builder\\templates\\vc10_user.pyc'
p207
F1333407746.0
sS'c:\\marmalade\\5.2\\s3e\\makefile_builder\\plugins'
p208
F1333643947.9385924
sS'c:\\marmalade\\5.2\\s3e\\makefile_builder\\plugins\\SConsEmitter.pyc'
p209
F1333407746.0
sS'c:\\marmalade\\5.2\\s3e\\makefile_builder\\templates\\xcode_pbxuser.py'
p210
F1333397672.0
sS'c:\\marmalade\\5.2\\s3e\\makefile_builder\\plugins\\s3e_make.pyc'
p211
F1333407746.0
sS'c:\\marmalade\\5.2\\s3e\\makefile_builder\\templates\\win32_vcproj.pyc'
p212
F1333407746.0
sS'c:\\marmalade\\5.2\\s3e\\makefile_builder\\templates\\gdb_start.txt'
p213
F1333397672.0
sS'c:\\marmalade\\5.2\\s3e\\makefile_builder\\plugins\\vc7_utils.pyc'
p214
F1333407746.0
sS'c:\\marmalade\\5.2\\s3e\\makefile_builder\\templates\\scons.pyc'
p215
F1333407746.0
sS'c:\\marmalade\\5.2\\s3e\\makefile_builder\\plugins\\null.pyc'
p216
F1333407746.0
sS'c:\\marmalade\\5.2\\s3e\\makefile_builder\\templates\\template.opt'
p217
F1333397672.0
sS'c:\\marmalade\\5.2\\s3e\\makefile_builder\\plugins\\s3e_qmake.pyc'
p218
F1333643947.9205916
sS'c:\\marmalade\\5.2\\s3e\\makefile_builder\\docs\\deployment_options.txt'
p219
F1333397670.0
sccopy_reg
_reconstructor
p220
(cmkb_main
MkbFile
p221
c__builtin__
object
p222
Ntp223
Rp224
(dp225
g5
(lp226
sS'target_name'
p227
S'Constructs'
p228
sS'current_file'
p229
g96
sS'package_path'
p230
(lp231
sS'post_build'
p232
(lp233
(lp234
S'c:/marmalade/5.2/s3e/tools'
p235
aS'C:\\Marmalade\\5.2\\s3e\\python\\python.exe .\\process_map.py "$(TargetPath)"'
p236
aasS'librarys'
p237
(lp238
g220
(cmkb_main
Library
p239
g222
Ntp240
Rp241
(dp242
S'name'
p243
S'vc6_compat.lib'
p244
sS'expand_name'
p245
I00
sS'include_spec_rvct_objs'
p246
(lp247
sS'include_all_objs'
p248
I00
sS'share_arm'
p249
I00
sS'arch'
p250
S'x86'
p251
sS'nodebug'
p252
I00
sg30
Nsbag220
(g239
g222
Ntp253
Rp254
(dp255
g243
S'iwutil'
p256
sg245
I01
sg246
(lp257
sg248
I00
sg249
I01
sg250
Nsg252
I00
sg30
Nsbag220
(g239
g222
Ntp258
Rp259
(dp260
g243
S'derbh'
p261
sg245
I01
sg246
g257
sg248
I00
sg249
I01
sg250
Nsg252
I00
sg30
Nsbag220
(g239
g222
Ntp262
Rp263
(dp264
g243
S'iwgeom'
p265
sg245
I01
sg246
g257
sg248
I00
sg249
I01
sg250
Nsg252
I00
sg30
Nsbag220
(g239
g222
Ntp266
Rp267
(dp268
g243
S'iwresmanager'
p269
sg245
I01
sg246
g257
sg248
I00
sg249
I01
sg250
Nsg252
I00
sg30
Nsbag220
(g239
g222
Ntp270
Rp271
(dp272
g243
S'ATI_Compress_MT_VC7.lib'
p273
sg245
I00
sg246
g257
sg248
I00
sg249
Nsg250
S'x86'
p274
sg252
I00
sg30
Nsbag220
(g239
g222
Ntp275
Rp276
(dp277
g243
S'iwgx'
p278
sg245
I01
sg246
g257
sg248
I00
sg249
I01
sg250
Nsg252
I00
sg30
Nsbag220
(g239
g222
Ntp279
Rp280
(dp281
g243
S'iwgl'
p282
sg245
I01
sg246
g257
sg248
I00
sg249
Nsg250
Nsg252
I00
sg30
Nsbag220
(g239
g222
Ntp283
Rp284
(dp285
g243
S'iwgraphics'
p286
sg245
I01
sg246
g257
sg248
I00
sg249
I01
sg250
Nsg252
I00
sg30
Nsbag220
(g239
g222
Ntp287
Rp288
(dp289
g243
S'iwgxfont'
p290
sg245
I01
sg246
g257
sg248
I00
sg249
I01
sg250
Nsg252
I00
sg30
Nsbag220
(g239
g222
Ntp291
Rp292
(dp293
g243
S'iw2d'
p294
sg245
I01
sg246
g257
sg248
I00
sg249
I01
sg250
Nsg252
I00
sg30
Nsbag220
(g239
g222
Ntp295
Rp296
(dp297
g243
S's3e_cpp'
p298
sg245
I01
sg246
g247
sg248
I00
sg249
I00
sg250
Nsg252
I00
sg30
Nsbag220
(g239
g222
Ntp299
Rp300
(dp301
g243
S's3e'
p302
sg245
I01
sg246
(lp303
S'iwcrt.o'
p304
asg248
I00
sg249
I00
sg250
Nsg252
I00
sg30
Nsbag220
(g239
g222
Ntp305
Rp306
(dp307
g243
S'c:/marmalade/5.2/s3e/lib/x86/s3e_api.lib'
p308
sg245
I00
sg246
g247
sg248
I00
sg249
I00
sg250
S'x86'
p309
sg252
I00
sg30
Nsbag220
(g239
g222
Ntp310
Rp311
(dp312
g243
S's3estubs'
p313
sg245
I00
sg246
g247
sg248
I00
sg249
I00
sg250
S'arm'
p314
sg252
I00
sg30
S'gcc'
p315
sbasS'library_paths'
p316
(lp317
g220
(cmkb_main
LibraryPath
p318
g222
Ntp319
Rp320
(dp321
S'expand_path'
p322
I01
sS'add_cpu_variant'
p323
I00
sg243
S'c:/marmalade/5.2/modules/iwutil'
p324
sbag220
(g318
g222
Ntp325
Rp326
(dp327
g322
I01
sg323
I00
sg243
S'c:/marmalade/5.2/modules/derbh'
p328
sbag220
(g318
g222
Ntp329
Rp330
(dp331
g322
I01
sg323
I00
sg243
S'c:/marmalade/5.2/modules/iwgeom'
p332
sbag220
(g318
g222
Ntp333
Rp334
(dp335
g322
I01
sg323
I00
sg243
S'c:/marmalade/5.2/modules/iwresmanager'
p336
sbag220
(g318
g222
Ntp337
Rp338
(dp339
g322
I00
sg323
I00
sg243
S'c:/marmalade/5.2/modules/iwgx/atitools'
p340
sbag220
(g318
g222
Ntp341
Rp342
(dp343
g322
I01
sg323
I00
sg243
S'c:/marmalade/5.2/modules/iwgx'
p344
sbag220
(g318
g222
Ntp345
Rp346
(dp347
g322
I01
sg323
I00
sg243
S'c:/marmalade/5.2/modules/iwgl'
p348
sbag220
(g318
g222
Ntp349
Rp350
(dp351
g322
I01
sg323
I00
sg243
S'c:/marmalade/5.2/modules/iwgraphics'
p352
sbag220
(g318
g222
Ntp353
Rp354
(dp355
g322
I01
sg323
I00
sg243
S'c:/marmalade/5.2/modules/iwgxfont'
p356
sbag220
(g318
g222
Ntp357
Rp358
(dp359
g322
I01
sg323
I00
sg243
S'c:/marmalade/5.2/modules/iw2d'
p360
sbag220
(g318
g222
Ntp361
Rp362
(dp363
g322
I01
sg323
I00
sg243
S'c:/marmalade/5.2/s3e'
p364
sbasS'macros'
p365
(dp366
S'IW_USE_CALLSTACK'
p367
NsS'IW_SDK'
p368
NsS'I3D_PLATFORM_S3E'
p369
NsS'IW_MKF_IWGRAPHICS'
p370
NsS'I3D_OS_S3E'
p371
NsS'IW_APP_VERSION'
p372
S'"1.0"'
p373
sS'IW_MKF_IWRESMANAGER'
p374
NsS'IW_MKF_IWUTIL'
p375
NsS'IW_MKF_IWGEOM'
p376
NsS'IW_ASSERTION_CHANNEL_2D'
p377
S'1'
p378
sS'IW_APP_NAME'
p379
S'"Constructs"'
p380
sS'IW_MKF_IWGXFONT'
p381
NsS'IW_PLATFORM_S3E'
p382
NsS'IW_MKF_IWGX'
p383
NsS'IW_USE_ASSERTIONS'
p384
NsS'_CRT_SECURE_NO_DEPRECATE'
p385
NsS'IW_MKF_IWGL'
p386
NsS'IW_MKF_DERBH'
p387
NsS'IW_DEBUG'
p388
NsS'IW_USE_TRACING'
p389
NsS'S3E_INCLUDE_LEGACY'
p390
NsS'__S3E__'
p391
NsS'IW_MKF_IW2D'
p392
NssS'done_warnings'
p393
(dp394
sS'subprojects'
p395
(dp396
g138
S'iwgeom'
p397
sg139
S'iwresmanager'
p398
sg143
S'iwgxfont'
p399
sg136
S'derbh'
p400
sg141
S'iwgraphics'
p401
sg142
S'iw2d'
p402
sg137
S'iwgx'
p403
sg135
S'iwutil'
p404
sg140
S'iwgl'
p405
ssS'deployments'
p406
(dp407
S'Default'
p408
g220
(cmkb_main
Deployment
p409
g222
Ntp410
Rp411
(dp412
S'got_version'
p413
I0
sS'assets'
p414
S'GLES1'
p415
sS'mkb'
p416
g224
sS'target'
p417
Nsg250
(lp418
sS'options'
p419
(dp420
S'game-icf'
p421
NsS'iphone-icon-high-res'
p422
NsS'win32-pref-windowposy'
p423
NsS'win32-pref-windowposx'
p424
NsS'bada-appsecret'
p425
NsS'playbook-author'
p426
NsS'winmobile-icon32'
p427
NsS'linux-ext-lib'
p428
(lp429
sS'target-folder'
p430
NsS'ngi-splashscreen-port'
p431
NsS'psp-discversion'
p432
NsS'iphone-backgroundmode-audio'
p433
NsS'lgtv-use-drm'
p434
NsS'nds-bannertitle-sp'
p435
NsS'symbian-platsecflags'
p436
NsS'psp-producer'
p437
NsS'iphone-provisioning-profile'
p438
NsS'copyright'
p439
NsS'winmobile-png45'
p440
NsS'symbian-cert'
p441
NsS'nds-bannertitle-hn'
p442
NsS'uiq3-icon1-mask'
p443
NsS'brew-depends'
p444
NsS'winmobile-png60'
p445
NsS'winmobile-nouninstall'
p446
NsS'brew-mif'
p447
NsS'android-icon-hdpi'
p448
NsS'iphone-ipad-only'
p449
NsS'iphone-bundle-url-name'
p450
NsS'android-aliasname'
p451
NsS'psp-dlgmanual'
p452
NsS'long-caption'
p453
NsS'android-pkgname'
p454
NsS'webos-memory'
p455
NsS'brew-uid'
p456
NsS'android-keypass'
p457
NsS'ngi-uid'
p458
NsS'symbian-locationsupport'
p459
NsS'iphone-signing-host'
p460
NsS'ngi-install-sisx-only'
p461
NsS'nds-bannertitle-jp'
p462
NsS'name'
p463
NsS'symbian-icon1-format'
p464
NsS'uiq3-uid'
p465
NsS'psp-dlgcontentid'
p466
NsS'auto-derbh'
p467
NsS'arch'
p468
NsS'bada-use-partner-privileges'
p469
NsS'nds-bannertitle-it'
p470
NsS'playbook-authorid'
p471
NsS'psp-copyright'
p472
NsS'ngi-achievements'
p473
NsS'splashscreen'
p474
NsS'symbian-soundrecordsupport'
p475
NsS'symbian-icon2-format'
p476
NsS'iphone-icon-settings-high-res'
p477
NsS'android-manifest'
p478
NsS'ngi-splash-producer'
p479
NsS'winmobile-icon16'
p480
NsS's3e-compression'
p481
NsS'ngi-game-extras'
p482
NsS'iphone-link-opts'
p483
(lp484
sS'iphone-region'
p485
NsS'uiq3-icon3-mask'
p486
NsS'winmobile-start-menu-folder'
p487
NsS'brew-clsid'
p488
NsS'brew-encoding'
p489
NsS'symbian-icon1'
p490
NsS'symbian-icon2'
p491
NsS'ngi-icon1'
p492
NsS'psp-parentallevel'
p493
NsS'ngi-icon3'
p494
NsS'ngi-icon2'
p495
NsS'ngi-icon4'
p496
NsS'osx-ext-dll'
p497
(lp498
sS'version'
p499
NsS'bada-manifest'
p500
NsS'provider'
p501
NsS'iphone-prerendered-icon'
p502
NsS'iphone-appid'
p503
NsS'playbook-keystore'
p504
NsS'nds-initialcode'
p505
NsS'ngi-splashscreen-land'
p506
NsS'ngi-key'
p507
NsS'winmobile-icon64'
p508
NsS'iphone-persistent-wifi'
p509
NsS'symbian7-uid'
p510
NsS'winmobile-setup-dll'
p511
NsS'symbian-osexecsupport'
p512
NsS'android-install-location'
p513
NsS'olddeploytoolstyle'
p514
NsS'nds-privatesavedatasize'
p515
NsS'symbian9-uid'
p516
NsS'nds-bannertitle-cn'
p517
NsS'winmobile-trace-file'
p518
NsS'playbook-storepass'
p519
NsS'ngi-no-assets'
p520
NsS'android-icon-ldpi'
p521
NsS'psp-appversion'
p522
NsS'networking'
p523
NsS'winmobile-install-folder'
p524
NsS'ngi-metadata'
p525
NsS'android-external-res'
p526
(lp527
sS'manufacturer'
p528
NsS'android-icon-gallery'
p529
NsS'bada-signed'
p530
NsS'nds-publicsavedatasize'
p531
NsS'psp-snd0'
p532
NsS'iphone-extra-sections'
p533
NsS'iphone-nosign'
p534
NsS'caption'
p535
NsS'android-icon'
p536
NsS'android-external-jars'
p537
(lp538
sS'android-storepass'
p539
NsS'iphone-info-plist'
p540
NsS'ngi-arena-config'
p541
NsS'android-extra-manifest'
p542
(lp543
sS'iphone-icon-ipad-search'
p544
NsS'android-custom-activity'
p545
NsS'version-minor'
p546
NsS'iphone-icon-ipad'
p547
NsS'bada-appid'
p548
NsS'meego-desc'
p549
NsS'iphone-link-libdirs'
p550
(lp551
sS'iphone-icon-large'
p552
NsS'symbian-maxheapsize'
p553
NsS'embed-icf'
p554
NsS'psp-titlename'
p555
NsS'win-icon'
p556
NsS'symbian-icon1-mask'
p557
NsS'nds-makercode'
p558
NsS'priv-sign-key'
p559
NsS'webos-appinfo'
p560
NsS'symbian-cert-key'
p561
NsS'winmobile-ampd-part-number'
p562
NsS'webos-appid'
p563
NsS'android-icon-nonstandard'
p564
NsS'android-extra-application-manifest'
p565
(lp566
sS'iphone-icon-settings'
p567
NsS'ngi-gameinfo'
p568
NsS'osx-icon'
p569
NsS'symbian-disable-ecompxl'
p570
NsS'splashscreen-auto-onblack'
p571
NsS'icon'
p572
NsS'nds-romheadertemplate'
p573
NsS'webos-icon'
p574
NsS'ngi-arena-rss'
p575
NsS'nds-bannertitle-en'
p576
NsS'win32-ext-dll'
p577
(lp578
sS'psp-dlgicon0'
p579
NsS'psp-discid'
p580
NsS'winmobile-icon48'
p581
NsS'android-unsigned'
p582
NsS'nds-titlename'
p583
NsS'android-so'
p584
(lp585
sS'android-supports-gl-texture'
p586
(lp587
sS'bada-splash'
p588
NsS'version-revision'
p589
NsS'android-icon-mdpi'
p590
NsS'android-keystore'
p591
NsS'uiq3-icon2-format'
p592
NsS'version-string'
p593
NsS'winmobile-png90'
p594
NsS'iphone-disable-ipad'
p595
NsS'uiq3-icon1-format'
p596
NsS'iphone-bundle-url-schemes'
p597
NsS'nds-icon'
p598
NsS'ngi-arena-locales'
p599
NsS'ngi-filemanager-lib'
p600
NsS'meego-provider-contact'
p601
NsS'android_extra_strings'
p602
NsS'playbook-icon'
p603
NsS'uid'
p604
NsS'iphone-signing-identity'
p605
NsS'brew-icon-medium'
p606
NsS'brew-icon-large'
p607
NsS'pkguid-as-uid'
p608
NsS'symbian-icon1-mask-black'
p609
NsS'uiq3-icon2'
p610
NsS'pub-sign-key'
p611
NsS'nds-bannertitle-fr'
p612
NsS'win32-pref-windowtitle'
p613
NsS'symbian8-uid'
p614
NsS'symbian-icon-svg'
p615
NsS'brew-priviledges'
p616
NsS'ngi-cert'
p617
NsS'brew-icon-small'
p618
NsS'psp-dlgpic2'
p619
NsS'bada-icon'
p620
NsS'psp-dlgpic0'
p621
NsS'ngi-gcce-loader'
p622
NsS'psp-pic0'
p623
NsS'psp-pic1'
p624
NsS'iphone-icon'
p625
NsS'psp-icon0'
p626
NsS'psp-icon1'
p627
NsS'uiq3-icon3-format'
p628
NsS'version-major'
p629
NsS'iphone_bundle_localisations'
p630
NsS'winmobile-icon'
p631
NsS'symbian-keypwd'
p632
NsS'iphone-no-splash'
p633
NsS'playbook-access-shared'
p634
NsS'psp-dlghealthwarning'
p635
NsS'iphone-link-libs'
p636
(lp637
sS'ngi-filemanager-dll'
p638
NsS'iphone-splash'
p639
NsS'nds-bannertitle-ge'
p640
NsS'android_icon_gallery'
p641
NsS'iphone-app-fonts'
p642
NsS'symbian-icon2-mask'
p643
NsS'iphone-sign-for-distribution'
p644
NsS'psp-dlgprotectdocument'
p645
NsS'winmobile-cab-compress'
p646
NsS'uiq3-icon3'
p647
NsS'uiq3-icon1'
p648
NsS'itunes-artwork'
p649
NsS'win32-icon'
p650
NsS'assets'
p651
NsS'symbian-key'
p652
NsS'app-icf'
p653
NsS'ngi-arena-rsc'
p654
NsS'brew-compress-loader'
p655
NsS'uiq3-icon2-mask'
p656
NsS'symbian-icon2-mask-black'
p657
NsS'android-extra-strings'
p658
NsS'symbian-run-on-install'
p659
NsS'iphone-bundle-localisations'
p660
Nssg243
g408
sbssS'platform'
p661
S'S3E'
p662
sg49
S'1.0'
p663
sS'arcade_platform'
p664
g4
sS'source_groups_tree'
p665
(dp666
S'Buttons'
p667
(dp668
S'C:/Users/ET/Documents/Universal Story/Universal Story/jj/constructs/source/QuadButton.hpp'
p669
(lp670
I1
a(dp671
asS'C:/Users/ET/Documents/Universal Story/Universal Story/jj/constructs/source/Button.hpp'
p672
(lp673
I1
ag671
asS'C:/Users/ET/Documents/Universal Story/Universal Story/jj/constructs/source/QuadButton.cpp'
p674
(lp675
I1
ag671
asS'C:/Users/ET/Documents/Universal Story/Universal Story/jj/constructs/source/CircularButton.cpp'
p676
(lp677
I1
ag671
asS'C:/Users/ET/Documents/Universal Story/Universal Story/jj/constructs/source/CircularButton.hpp'
p678
(lp679
I1
ag671
assS'Main'
p680
(dp681
S'C:/Users/ET/Documents/Universal Story/Universal Story/jj/constructs/source/Game.hpp'
p682
(lp683
I1
ag671
asS'C:/Users/ET/Documents/Universal Story/Universal Story/jj/constructs/source/Game.cpp'
p684
(lp685
I1
ag671
asS'C:/Users/ET/Documents/Universal Story/Universal Story/jj/constructs/source/main.cpp'
p686
(lp687
I1
ag671
assS'Levels'
p688
(dp689
S'C:/Users/ET/Documents/Universal Story/Universal Story/jj/constructs/source/ShipBuildingArea.cpp'
p690
(lp691
I1
ag671
asS'C:/Users/ET/Documents/Universal Story/Universal Story/jj/constructs/source/ShipLevel.hpp'
p692
(lp693
I1
ag671
asS'C:/Users/ET/Documents/Universal Story/Universal Story/jj/constructs/source/Level1.cpp'
p694
(lp695
I1
ag671
asS'C:/Users/ET/Documents/Universal Story/Universal Story/jj/constructs/source/ShipLevel.cpp'
p696
(lp697
I1
ag671
asS'C:/Users/ET/Documents/Universal Story/Universal Story/jj/constructs/source/Level.hpp'
p698
(lp699
I1
ag671
asS'C:/Users/ET/Documents/Universal Story/Universal Story/jj/constructs/source/ShipBuildingArea.hpp'
p700
(lp701
I1
ag671
asS'C:/Users/ET/Documents/Universal Story/Universal Story/jj/constructs/source/LevelList.hpp'
p702
(lp703
I1
ag671
asS'C:/Users/ET/Documents/Universal Story/Universal Story/jj/constructs/source/Level1.hpp'
p704
(lp705
I1
ag671
assS'Puzzle'
p706
(dp707
S'C:/Users/ET/Documents/Universal Story/Universal Story/jj/constructs/source/RobotBuildingPuzzle.cpp'
p708
(lp709
I1
ag671
asS'C:/Users/ET/Documents/Universal Story/Universal Story/jj/constructs/source/RobotBuildingPuzzle.hpp'
p710
(lp711
I1
ag671
asS'C:/Users/ET/Documents/Universal Story/Universal Story/jj/constructs/source/GravityHose.hpp'
p712
(lp713
I1
ag671
asS'C:/Users/ET/Documents/Universal Story/Universal Story/jj/constructs/source/BuildPiece.cpp'
p714
(lp715
I1
ag671
asS'C:/Users/ET/Documents/Universal Story/Universal Story/jj/constructs/source/Puzzle.hpp'
p716
(lp717
I1
ag671
asS'C:/Users/ET/Documents/Universal Story/Universal Story/jj/constructs/source/FlickableObject.hpp'
p718
(lp719
I1
ag671
asS'C:/Users/ET/Documents/Universal Story/Universal Story/jj/constructs/source/EscapePodBuildingPuzzle.cpp'
p720
(lp721
I1
ag671
asS'C:/Users/ET/Documents/Universal Story/Universal Story/jj/constructs/source/GravityHose.cpp'
p722
(lp723
I1
ag671
asS'C:/Users/ET/Documents/Universal Story/Universal Story/jj/constructs/source/EscapePodBuildingPuzzle.hpp'
p724
(lp725
I1
ag671
asS'C:/Users/ET/Documents/Universal Story/Universal Story/jj/constructs/source/BuildPieceSilhouette.hpp'
p726
(lp727
I1
ag671
asS'C:/Users/ET/Documents/Universal Story/Universal Story/jj/constructs/source/RubblePuzzle.cpp'
p728
(lp729
I1
ag671
asS'C:/Users/ET/Documents/Universal Story/Universal Story/jj/constructs/source/RubblePuzzle.hpp'
p730
(lp731
I1
ag671
asS'C:/Users/ET/Documents/Universal Story/Universal Story/jj/constructs/source/FlickableObject.cpp'
p732
(lp733
I1
ag671
asS'C:/Users/ET/Documents/Universal Story/Universal Story/jj/constructs/source/BuildPiece.hpp'
p734
(lp735
I1
ag671
asS'C:/Users/ET/Documents/Universal Story/Universal Story/jj/constructs/source/BuildPieceSilhouette.cpp'
p736
(lp737
I1
ag671
asS'C:/Users/ET/Documents/Universal Story/Universal Story/jj/constructs/source/BuildPieceSet.cpp'
p738
(lp739
I1
ag671
asS'C:/Users/ET/Documents/Universal Story/Universal Story/jj/constructs/source/BuildPieceSet.hpp'
p740
(lp741
I1
ag671
assS'Environment'
p742
(dp743
S'C:/Users/ET/Documents/Universal Story/Universal Story/jj/constructs/source/ScrollingLayer.hpp'
p744
(lp745
I1
ag671
asS'C:/Users/ET/Documents/Universal Story/Universal Story/jj/constructs/source/ScrollingLayer.cpp'
p746
(lp747
I1
ag671
assS'Game States'
p748
(dp749
S'C:/Users/ET/Documents/Universal Story/Universal Story/jj/constructs/source/MenuState.hpp'
p750
(lp751
I1
ag671
asS'C:/Users/ET/Documents/Universal Story/Universal Story/jj/constructs/source/TitleState.hpp'
p752
(lp753
I1
ag671
asS'C:/Users/ET/Documents/Universal Story/Universal Story/jj/constructs/source/State.hpp'
p754
(lp755
I1
ag671
asS'C:/Users/ET/Documents/Universal Story/Universal Story/jj/constructs/source/Condition.hpp'
p756
(lp757
I1
ag671
asS'C:/Users/ET/Documents/Universal Story/Universal Story/jj/constructs/source/PlayState.hpp'
p758
(lp759
I1
ag671
asS'C:/Users/ET/Documents/Universal Story/Universal Story/jj/constructs/source/PlayState.cpp'
p760
(lp761
I1
ag671
asS'C:/Users/ET/Documents/Universal Story/Universal Story/jj/constructs/source/MenuState.cpp'
p762
(lp763
I1
ag671
asS'C:/Users/ET/Documents/Universal Story/Universal Story/jj/constructs/source/TitleState.cpp'
p764
(lp765
I1
ag671
asS'C:/Users/ET/Documents/Universal Story/Universal Story/jj/constructs/source/TestState.cpp'
p766
(lp767
I1
ag671
asS'C:/Users/ET/Documents/Universal Story/Universal Story/jj/constructs/source/TestState.hpp'
p768
(lp769
I1
ag671
assS'Video'
p770
(dp771
S'C:/Users/ET/Documents/Universal Story/Universal Story/jj/constructs/source/Video.hpp'
p772
(lp773
I1
ag671
asS'C:/Users/ET/Documents/Universal Story/Universal Story/jj/constructs/source/Video.cpp'
p774
(lp775
I1
ag671
assS'Characters'
p776
(dp777
S'C:/Users/ET/Documents/Universal Story/Universal Story/jj/constructs/source/Alien.hpp'
p778
(lp779
I1
ag671
asS'C:/Users/ET/Documents/Universal Story/Universal Story/jj/constructs/source/Alien.cpp'
p780
(lp781
I1
ag671
asS'C:/Users/ET/Documents/Universal Story/Universal Story/jj/constructs/source/Robot.hpp'
p782
(lp783
I1
ag671
asS'C:/Users/ET/Documents/Universal Story/Universal Story/jj/constructs/source/Robot.cpp'
p784
(lp785
I1
ag671
assS'Graphics'
p786
(dp787
S'C:/Users/ET/Documents/Universal Story/Universal Story/jj/constructs/source/GraphicsObject.cpp'
p788
(lp789
I1
ag671
asS'C:/Users/ET/Documents/Universal Story/Universal Story/jj/constructs/source/Quad.cpp'
p790
(lp791
I1
ag671
asS'C:/Users/ET/Documents/Universal Story/Universal Story/jj/constructs/source/Quad.hpp'
p792
(lp793
I1
ag671
asS'C:/Users/ET/Documents/Universal Story/Universal Story/jj/constructs/source/AnimatedSprite.cpp'
p794
(lp795
I1
ag671
asS'C:/Users/ET/Documents/Universal Story/Universal Story/jj/constructs/source/Sprite.cpp'
p796
(lp797
I1
ag671
asS'C:/Users/ET/Documents/Universal Story/Universal Story/jj/constructs/source/GraphicsObject.hpp'
p798
(lp799
I1
ag671
asS'C:/Users/ET/Documents/Universal Story/Universal Story/jj/constructs/source/Material.hpp'
p800
(lp801
I1
ag671
asS'C:/Users/ET/Documents/Universal Story/Universal Story/jj/constructs/source/AnimatedSprite.hpp'
p802
(lp803
I1
ag671
asS'C:/Users/ET/Documents/Universal Story/Universal Story/jj/constructs/source/Material.cpp'
p804
(lp805
I1
ag671
asS'C:/Users/ET/Documents/Universal Story/Universal Story/jj/constructs/source/Sprite.hpp'
p806
(lp807
I1
ag671
assS"'Marmalade Studio'"
p808
(dp809
S'iwgl'
p810
(dp811
S'c:/marmalade/5.2/modules/iwgl/h/IwGL.h'
p812
(lp813
I1
a(dp814
asS'c:/marmalade/5.2/modules/iwgl/docs/iwgl.config.txt'
p815
(lp816
I1
ag814
asS'c:/marmalade/5.2/modules/iwgl/iwgl.mkf'
p817
(lp818
I1
a(dp819
asS'c:/marmalade/5.2/modules/iwgl/h/IwGLExt.h'
p820
(lp821
I1
ag814
assS'iw2d'
p822
(dp823
S'c:/marmalade/5.2/modules/iw2d/docs/iw2d.config.txt'
p824
(lp825
I1
a(dp826
asS'c:/marmalade/5.2/modules/iw2d/iw2d.mkf'
p827
(lp828
I1
a(dp829
asS'c:/marmalade/5.2/modules/iw2d/docs/iw2d_public.defines.txt'
p830
(lp831
I1
ag826
asS'c:/marmalade/5.2/modules/iw2d/h/Iw2D.h'
p832
(lp833
I1
ag826
assS'iwgxfont'
p834
(dp835
S'c:/marmalade/5.2/modules/iwgxfont/h/IwGxFontPreparedData.h'
p836
(lp837
I1
a(dp838
asS'c:/marmalade/5.2/modules/iwgxfont/docs/iwgxfont.config.txt'
p839
(lp840
I1
ag838
asS'c:/marmalade/5.2/modules/iwgxfont/h/IwGxFontContainer.h'
p841
(lp842
I1
ag838
asS'c:/marmalade/5.2/modules/iwgxfont/h/IwGxFontState.h'
p843
(lp844
I1
ag838
asS'c:/marmalade/5.2/modules/iwgxfont/docs/iwgxfont_public.defines.txt'
p845
(lp846
I1
ag838
asS'c:/marmalade/5.2/modules/iwgxfont/h/IwGxFontTypes.h'
p847
(lp848
I1
ag838
asS'c:/marmalade/5.2/modules/iwgxfont/h/IwGxFontGlyph.h'
p849
(lp850
I1
ag838
asS'c:/marmalade/5.2/modules/iwgxfont/iwgxfont.mkf'
p851
(lp852
I1
a(dp853
asS'c:/marmalade/5.2/modules/iwgxfont/h/IwGxFont.h'
p854
(lp855
I1
ag838
assS'derbh'
p856
(dp857
S'c:/marmalade/5.2/modules/derbh/docs/derbh.config.txt'
p858
(lp859
I1
a(dp860
asS'c:/marmalade/5.2/modules/derbh/source/DerbhAutoInit.cpp'
p861
(lp862
I1
ag860
asS'c:/marmalade/5.2/modules/derbh/h/dzio.h'
p863
(lp864
I1
ag860
asS'c:/marmalade/5.2/modules/derbh/derbh.mkf'
p865
(lp866
I1
a(dp867
asS'c:/marmalade/5.2/modules/derbh/h/derbh.h'
p868
(lp869
I1
ag860
assS'iwgraphics'
p870
(dp871
S'c:/marmalade/5.2/modules/iwgraphics/h/IwModel.h'
p872
(lp873
I1
a(dp874
asS'c:/marmalade/5.2/modules/iwgraphics/h/IwGraphicsState.h'
p875
(lp876
I1
ag874
asS'c:/marmalade/5.2/modules/iwgraphics/docs/iwgraphics.config.txt'
p877
(lp878
I1
ag874
asS'c:/marmalade/5.2/modules/iwgraphics/h/IwModelBlockGL.h'
p879
(lp880
I1
ag874
asS'c:/marmalade/5.2/modules/iwgraphics/h/IwModelBlockGen.h'
p881
(lp882
I1
ag874
asS'c:/marmalade/5.2/modules/iwgraphics/h/IwModelExt.h'
p883
(lp884
I1
ag874
asS'c:/marmalade/5.2/modules/iwgraphics/h/IwGraphics.h'
p885
(lp886
I1
ag874
asS'c:/marmalade/5.2/modules/iwgraphics/h/IwModelBlockSW.h'
p887
(lp888
I1
ag874
asS'c:/marmalade/5.2/modules/iwgraphics/h/IwGraphicsFuncs.h'
p889
(lp890
I1
ag874
asS'c:/marmalade/5.2/modules/iwgraphics/h/IwResHandlerGEO.h'
p891
(lp892
I1
ag874
asS'c:/marmalade/5.2/modules/iwgraphics/h/IwModelImporter.h'
p893
(lp894
I1
ag874
asS'c:/marmalade/5.2/modules/iwgraphics/h/IwModelBuilder.h'
p895
(lp896
I1
ag874
asS'c:/marmalade/5.2/modules/iwgraphics/h/IwGraphicsMetrics.h'
p897
(lp898
I1
ag874
asS'c:/marmalade/5.2/modules/iwgraphics/iwgraphics.mkf'
p899
(lp900
I1
a(dp901
asS'c:/marmalade/5.2/modules/iwgraphics/h/IwModelBuildInfo.h'
p902
(lp903
I1
ag874
asS'c:/marmalade/5.2/modules/iwgraphics/h/IwModelBlock.h'
p904
(lp905
I1
ag874
assS'iwgeom'
p906
(dp907
S'c:/marmalade/5.2/modules/iwgeom/h/IwGeomSVec2.h'
p908
(lp909
I1
a(dp910
asS'c:/marmalade/5.2/modules/iwgeom/h/IwGeomSphere.h'
p911
(lp912
I1
ag910
asS'c:/marmalade/5.2/modules/iwgeom/h/IwGeomSVec3.h'
p913
(lp914
I1
ag910
asS'c:/marmalade/5.2/modules/iwgeom/h/IwGeomIntersect.h'
p915
(lp916
I1
ag910
asS'c:/marmalade/5.2/modules/iwgeom/h/IwGeomVec.h'
p917
(lp918
I1
ag910
asS'c:/marmalade/5.2/modules/iwgeom/h/IwGeomFVec3.h'
p919
(lp920
I1
ag910
asS'c:/marmalade/5.2/modules/iwgeom/h/IwGeomFVec2.h'
p921
(lp922
I1
ag910
asS'c:/marmalade/5.2/modules/iwgeom/h/IwGeomFQuat.h'
p923
(lp924
I1
ag910
asS'c:/marmalade/5.2/modules/iwgeom/h/IwGeomCore.h'
p925
(lp926
I1
ag910
asS'c:/marmalade/5.2/modules/iwgeom/h/IwGeomQuat.h'
p927
(lp928
I1
ag910
asS'c:/marmalade/5.2/modules/iwgeom/h/IwGeomFBBox.h'
p929
(lp930
I1
ag910
asS'c:/marmalade/5.2/modules/iwgeom/h/IwGeomVec4.h'
p931
(lp932
I1
ag910
asS'c:/marmalade/5.2/modules/iwgeom/h/IwGeomBBox.h'
p933
(lp934
I1
ag910
asS'c:/marmalade/5.2/modules/iwgeom/h/IwGeom.h'
p935
(lp936
I1
ag910
asS'c:/marmalade/5.2/modules/iwgeom/h/IwGeomVec2.h'
p937
(lp938
I1
ag910
asS'c:/marmalade/5.2/modules/iwgeom/h/IwGeomMat2D.h'
p939
(lp940
I1
ag910
asS'c:/marmalade/5.2/modules/iwgeom/iwgeom.mkf'
p941
(lp942
I1
a(dp943
asS'c:/marmalade/5.2/modules/iwgeom/h/IwGeomMenu.h'
p944
(lp945
I1
ag910
asS'c:/marmalade/5.2/modules/iwgeom/h/IwGeomFMat2D.h'
p946
(lp947
I1
ag910
asS'c:/marmalade/5.2/modules/iwgeom/h/IwGeomFVec4.h'
p948
(lp949
I1
ag910
asS'c:/marmalade/5.2/modules/iwgeom/h/IwGeomSqrt.h'
p950
(lp951
I1
ag910
asS'c:/marmalade/5.2/modules/iwgeom/h/IwGeomSQuat.h'
p952
(lp953
I1
ag910
asS'c:/marmalade/5.2/modules/iwgeom/h/IwGeomVec3.h'
p954
(lp955
I1
ag910
asS'c:/marmalade/5.2/modules/iwgeom/h/IwGeomSVec4.h'
p956
(lp957
I1
ag910
asS'c:/marmalade/5.2/modules/iwgeom/h/IwGeomLegacy.h'
p958
(lp959
I1
ag910
asS'c:/marmalade/5.2/modules/iwgeom/h/IwGeomPlane.h'
p960
(lp961
I1
ag910
asS'c:/marmalade/5.2/modules/iwgeom/h/IwGeomFSphere.h'
p962
(lp963
I1
ag910
asS'c:/marmalade/5.2/modules/iwgeom/h/IwGeomFMat.h'
p964
(lp965
I1
ag910
asS'c:/marmalade/5.2/modules/iwgeom/docs/iwgeom.config.txt'
p966
(lp967
I1
ag910
asS'c:/marmalade/5.2/modules/iwgeom/h/IwGeomMat.h'
p968
(lp969
I1
ag910
assS'iwresmanager'
p970
(dp971
S'c:/marmalade/5.2/modules/iwresmanager/h/IwResManager.h'
p972
(lp973
I1
a(dp974
asS'c:/marmalade/5.2/modules/iwresmanager/h/IwResSerialise.h'
p975
(lp976
I1
ag974
asS'c:/marmalade/5.2/modules/iwresmanager/h/IwResHandler.h'
p977
(lp978
I1
ag974
asS'c:/marmalade/5.2/modules/iwresmanager/iwresmanager.mkf'
p979
(lp980
I1
a(dp981
asS'c:/marmalade/5.2/modules/iwresmanager/h/IwResHandlerImage.h'
p982
(lp983
I1
ag974
asS'c:/marmalade/5.2/modules/iwresmanager/docs/iwresmanager.config.txt'
p984
(lp985
I1
ag974
asS'c:/marmalade/5.2/modules/iwresmanager/h/IwResGroup.h'
p986
(lp987
I1
ag974
asS'c:/marmalade/5.2/modules/iwresmanager/h/IwResHandlerITX.h'
p988
(lp989
I1
ag974
asS'c:/marmalade/5.2/modules/iwresmanager/h/IwResHandlerGROUP.h'
p990
(lp991
I1
ag974
asS'c:/marmalade/5.2/modules/iwresmanager/h/IwResManagerClass.h'
p992
(lp993
I1
ag974
assS'iwgx'
p994
(dp995
S'c:/marmalade/5.2/modules/iwgx/h/IwColour.h'
p996
(lp997
I1
a(dp998
asS'c:/marmalade/5.2/modules/iwgx/h/IwGxStream.h'
p999
(lp1000
I1
ag998
asS'c:/marmalade/5.2/modules/iwgx/h/IwClip.inl'
p1001
(lp1002
I1
ag998
asS'c:/marmalade/5.2/modules/iwgx/h/IwTPage.h'
p1003
(lp1004
I1
ag998
asS'c:/marmalade/5.2/modules/iwgx/h/IwResHandlerMTL.h'
p1005
(lp1006
I1
ag998
asS'c:/marmalade/5.2/modules/iwgx/h/IwTexture.h'
p1007
(lp1008
I1
ag998
asS'c:/marmalade/5.2/modules/iwgx/h/IwGxTransformSW.h'
p1009
(lp1010
I1
ag998
asS'c:/marmalade/5.2/modules/iwgx/h/IwGxRenderSW.h'
p1011
(lp1012
I1
ag998
asS'c:/marmalade/5.2/modules/iwgx/h/IwGxShaderTechnique.h'
p1013
(lp1014
I1
ag998
asS'c:/marmalade/5.2/modules/iwgx/h/IwGxTypes.h'
p1015
(lp1016
I1
ag998
asS'c:/marmalade/5.2/modules/iwgx/h/IwGxMetrics.h'
p1017
(lp1018
I1
ag998
asS'c:/marmalade/5.2/modules/iwgx/h/IwGxSurface.h'
p1019
(lp1020
I1
ag998
asS'c:/marmalade/5.2/modules/iwgx/h/IwGxMotionBlur.h'
p1021
(lp1022
I1
ag998
asS'c:/marmalade/5.2/modules/iwgx/h/IwMaterial.h'
p1023
(lp1024
I1
ag998
asS'c:/marmalade/5.2/modules/iwgx/iwgx.mkf'
p1025
(lp1026
I1
a(dp1027
asS'c:/marmalade/5.2/modules/iwgx/h/IwGxFuncTable.h'
p1028
(lp1029
I1
ag998
asS'c:/marmalade/5.2/modules/iwgx/h/IwGxDrawSW.h'
p1030
(lp1031
I1
ag998
asS'c:/marmalade/5.2/modules/iwgx/docs/iwgx.config.txt'
p1032
(lp1033
I1
ag998
asS'c:/marmalade/5.2/modules/iwgx/h/IwGxPrint.h'
p1034
(lp1035
I1
ag998
asS'c:/marmalade/5.2/modules/iwgx/h/IwMatAnim.h'
p1036
(lp1037
I1
ag998
asS'c:/marmalade/5.2/modules/iwgx/h/IwGx.h'
p1038
(lp1039
I1
ag998
asS'c:/marmalade/5.2/modules/iwgx/h/IwGxError.h'
p1040
(lp1041
I1
ag998
asS'c:/marmalade/5.2/modules/iwgx/h/IwGxState.h'
p1042
(lp1043
I1
ag998
asS'c:/marmalade/5.2/modules/iwgx/h/IwGxDebug.h'
p1044
(lp1045
I1
ag998
asS'c:/marmalade/5.2/modules/iwgx/h/IwDebugPrim.h'
p1046
(lp1047
I1
ag998
asS'c:/marmalade/5.2/modules/iwgx/h/IwClip.h'
p1048
(lp1049
I1
ag998
asS'c:/marmalade/5.2/modules/iwgx/docs/iwgx_public.defines.txt'
p1050
(lp1051
I1
ag998
assS'iwutil'
p1052
(dp1053
S'c:/marmalade/5.2/modules/iwutil/h/IwCore.h'
p1054
(lp1055
I1
a(dp1056
asS'c:/marmalade/5.2/modules/iwutil/h/IwUtilInitTerm.h'
p1057
(lp1058
I1
ag1056
asS'c:/marmalade/5.2/modules/iwutil/h/IwMemory.h'
p1059
(lp1060
I1
ag1056
asS'c:/marmalade/5.2/modules/iwutil/h/IwClassFactory.h'
p1061
(lp1062
I1
ag1056
asS'c:/marmalade/5.2/modules/iwutil/h/IwRuntime.h'
p1063
(lp1064
I1
ag1056
asS'c:/marmalade/5.2/modules/iwutil/h/IwTextParser.h'
p1065
(lp1066
I1
ag1056
asS'c:/marmalade/5.2/modules/iwutil/h/IwOptimiseSize.h'
p1067
(lp1068
I1
ag1056
asS'c:/marmalade/5.2/modules/iwutil/h/IwProfileMenu.h'
p1069
(lp1070
I1
ag1056
asS'c:/marmalade/5.2/modules/iwutil/h/IwMath.h'
p1071
(lp1072
I1
ag1056
asS'c:/marmalade/5.2/modules/iwutil/h/IwMemBucketHelpers.h'
p1073
(lp1074
I1
ag1056
asS'c:/marmalade/5.2/modules/iwutil/h/IwUtil.h'
p1075
(lp1076
I1
ag1056
asS'c:/marmalade/5.2/modules/iwutil/h/IwChar.h'
p1077
(lp1078
I1
ag1056
asS'c:/marmalade/5.2/modules/iwutil/h/IwManagedList.h'
p1079
(lp1080
I1
ag1056
asS'c:/marmalade/5.2/modules/iwutil/h/IwOptimiseThumb.h'
p1081
(lp1082
I1
ag1056
asS'c:/marmalade/5.2/modules/iwutil/h/IwEvent.h'
p1083
(lp1084
I1
ag1056
asS'c:/marmalade/5.2/modules/iwutil/h/IwDebug.h'
p1085
(lp1086
I1
ag1056
asS'c:/marmalade/5.2/modules/iwutil/h/IwSingleton.h'
p1087
(lp1088
I1
ag1056
asS'c:/marmalade/5.2/modules/iwutil/h/IwDivide.h'
p1089
(lp1090
I1
ag1056
asS'c:/marmalade/5.2/modules/iwutil/h/IwTextParseable.h'
p1091
(lp1092
I1
ag1056
asS'c:/marmalade/5.2/modules/iwutil/h/IwArray.h'
p1093
(lp1094
I1
ag1056
asS'c:/marmalade/5.2/modules/iwutil/h/IwFibre.h'
p1095
(lp1096
I1
ag1056
asS'c:/marmalade/5.2/modules/iwutil/h/IwTextParserITX.h'
p1097
(lp1098
I1
ag1056
asS'c:/marmalade/5.2/modules/iwutil/h/IwUncopyable.h'
p1099
(lp1100
I1
ag1056
asS'c:/marmalade/5.2/modules/iwutil/h/IwString.h'
p1101
(lp1102
I1
ag1056
asS'c:/marmalade/5.2/modules/iwutil/h/IwUTF8.h'
p1103
(lp1104
I1
ag1056
asS'c:/marmalade/5.2/modules/iwutil/h/IwPath.h'
p1105
(lp1106
I1
ag1056
asS'c:/marmalade/5.2/modules/iwutil/h/IwAutoFile.h'
p1107
(lp1108
I1
ag1056
asS'c:/marmalade/5.2/modules/iwutil/h/IwManaged.h'
p1109
(lp1110
I1
ag1056
asS'c:/marmalade/5.2/modules/iwutil/h/IwMenu.h'
p1111
(lp1112
I1
ag1056
asS'c:/marmalade/5.2/modules/iwutil/h/IwTypes.h'
p1113
(lp1114
I1
ag1056
asS'c:/marmalade/5.2/modules/iwutil/h/IwRandom.h'
p1115
(lp1116
I1
ag1056
asS'c:/marmalade/5.2/modules/iwutil/h/IwMemManagerDL.h'
p1117
(lp1118
I1
ag1056
asS'c:/marmalade/5.2/modules/iwutil/h/IwOptimiseARM.h'
p1119
(lp1120
I1
ag1056
asS'c:/marmalade/5.2/modules/iwutil/h/IwKeymap.h'
p1121
(lp1122
I1
ag1056
asS'c:/marmalade/5.2/modules/iwutil/h/IwBuffer.h'
p1123
(lp1124
I1
ag1056
asS'c:/marmalade/5.2/modules/iwutil/h/IwCopyingPtr.h'
p1125
(lp1126
I1
ag1056
asS'c:/marmalade/5.2/modules/iwutil/h/IwSerialise.h'
p1127
(lp1128
I1
ag1056
asS'c:/marmalade/5.2/modules/iwutil/iwutil.mkf'
p1129
(lp1130
I1
a(dp1131
asS'c:/marmalade/5.2/modules/iwutil/h/IwOptimiseSpeed.h'
p1132
(lp1133
I1
ag1056
asS'c:/marmalade/5.2/modules/iwutil/h/IwList.h'
p1134
(lp1135
I1
ag1056
asS'c:/marmalade/5.2/modules/iwutil/h/IwDivTable.h'
p1136
(lp1137
I1
ag1056
asS'c:/marmalade/5.2/modules/iwutil/h/IwVariableBitField.h'
p1138
(lp1139
I1
ag1056
asS'c:/marmalade/5.2/modules/iwutil/h/IwAllocator.h'
p1140
(lp1141
I1
ag1056
asS'c:/marmalade/5.2/modules/iwutil/docs/iwutil.config.txt'
p1142
(lp1143
I1
ag1056
asS'c:/marmalade/5.2/modules/iwutil/h/IwFile.h'
p1144
(lp1145
I1
ag1056
asS'c:/marmalade/5.2/modules/iwutil/h/IwImage.h'
p1146
(lp1147
I1
ag1056
asS'c:/marmalade/5.2/modules/iwutil/h/IwResource.h'
p1148
(lp1149
I1
ag1056
asS'c:/marmalade/5.2/modules/iwutil/h/IwHashString.h'
p1150
(lp1151
I1
ag1056
asS'c:/marmalade/5.2/modules/iwutil/h/IwMemBucket.h'
p1152
(lp1153
I1
ag1056
asssS'Input'
p1154
(dp1155
S'C:/Users/ET/Documents/Universal Story/Universal Story/jj/constructs/source/Input.hpp'
p1156
(lp1157
I1
ag671
asS'C:/Users/ET/Documents/Universal Story/Universal Story/jj/constructs/source/Touch.hpp'
p1158
(lp1159
I1
ag671
asS'C:/Users/ET/Documents/Universal Story/Universal Story/jj/constructs/source/Touch.cpp'
p1160
(lp1161
I1
ag671
asS'C:/Users/ET/Documents/Universal Story/Universal Story/jj/constructs/source/Input.cpp'
p1162
(lp1163
I1
ag671
assS'Audio'
p1164
(dp1165
S'C:/Users/ET/Documents/Universal Story/Universal Story/jj/constructs/source/SoundEffect.hpp'
p1166
(lp1167
I1
ag671
asS'C:/Users/ET/Documents/Universal Story/Universal Story/jj/constructs/source/SoundEffect.cpp'
p1168
(lp1169
I1
ag671
asS'C:/Users/ET/Documents/Universal Story/Universal Story/jj/constructs/source/MusicPlayer.hpp'
p1170
(lp1171
I1
ag671
asS'C:/Users/ET/Documents/Universal Story/Universal Story/jj/constructs/source/MusicPlayer.cpp'
p1172
(lp1173
I1
ag671
asssS'files'
p1174
(dp1175
S'iterator'
p1176
(S'c:/marmalade/5.2/s3e/h/std/c++/iterator'
p1177
(lp1178
S"'Marmalade System (S3E)'"
p1179
aS'stdc headers'
p1180
aS'c++'
p1181
a(dp1182
tp1183
sS'Button.hpp'
p1184
(g672
(lp1185
g667
ag671
tp1186
sS'IwGeomPlane.h'
p1187
(g960
(lp1188
S"'Marmalade Studio'"
p1189
ag906
ag910
tp1190
sS's3e.h'
p1191
(S'c:/marmalade/5.2/s3e/h/s3e.h'
p1192
(lp1193
g1179
ag1182
tp1194
sS'errno.h'
p1195
(S'c:/marmalade/5.2/s3e/h/std/errno.h'
p1196
(lp1197
g1179
aS'stdc headers'
p1198
ag1182
tp1199
sS'IwSingleton.h'
p1200
(g1087
(lp1201
S"'Marmalade Studio'"
p1202
ag1052
ag1056
tp1203
sS'dlfcn.h'
p1204
(S'c:/marmalade/5.2/s3e/h/std/dlfcn.h'
p1205
g1197
g1182
tp1206
sS'stdio_streambuf'
p1207
(S'c:/marmalade/5.2/s3e/h/std/c++/stdio_streambuf'
p1208
g1178
g1182
tp1209
sS'ShipLevel.cpp'
p1210
(g696
(lp1211
g688
ag671
tp1212
sS'Robot.hpp'
p1213
(g782
(lp1214
g776
ag671
tp1215
sS'sched.h'
p1216
(S'c:/marmalade/5.2/s3e/h/std/sched.h'
p1217
g1197
g1182
tp1218
sS'IwGeomFMat2D.h'
p1219
(g946
g1188
g910
tp1220
sS'cassert'
p1221
(S'c:/marmalade/5.2/s3e/h/std/c++/cassert'
p1222
g1178
g1182
tp1223
sS'grp.h'
p1224
(S'c:/marmalade/5.2/s3e/h/std/grp.h'
p1225
g1197
g1182
tp1226
sS'Sprite.hpp'
p1227
(g806
(lp1228
g786
ag671
tp1229
sS'istream'
p1230
(S'c:/marmalade/5.2/s3e/h/std/c++/istream'
p1231
g1178
g1182
tp1232
sS'iw2d_public.defines.txt'
p1233
(g830
(lp1234
S"'Marmalade Studio'"
p1235
ag822
ag826
tp1236
sS'iostream.h'
p1237
(S'c:/marmalade/5.2/s3e/h/std/c++/iostream.h'
p1238
g1178
g1182
tp1239
sS'string'
p1240
(S'c:/marmalade/5.2/s3e/h/std/c++/string'
p1241
g1178
g1182
tp1242
sS'IwMemory.h'
p1243
(g1059
g1201
g1056
tp1244
sS'IwModel.h'
p1245
(g872
(lp1246
S"'Marmalade Studio'"
p1247
ag870
ag874
tp1248
sS'IwGL.h'
p1249
(g812
(lp1250
S"'Marmalade Studio'"
p1251
ag810
ag814
tp1252
sS'iw2d.config.txt'
p1253
(g824
g1234
g826
tp1254
sS'iomanip'
p1255
(S'c:/marmalade/5.2/s3e/h/std/c++/iomanip'
p1256
g1178
g1182
tp1257
sS'streambuf.h'
p1258
(S'c:/marmalade/5.2/s3e/h/std/c++/streambuf.h'
p1259
g1178
g1182
tp1260
sS'iwgeom.mkf'
p1261
(g941
g1188
g943
tp1262
sS'IwGxError.h'
p1263
(g1040
(lp1264
S"'Marmalade Studio'"
p1265
ag994
ag998
tp1266
sS'IwGeom.h'
p1267
(g935
g1188
g910
tp1268
sS'IwGeomVec4.h'
p1269
(g931
g1188
g910
tp1270
sS'dir.h'
p1271
(S'c:/marmalade/5.2/s3e/h/std/sys/dir.h'
p1272
(lp1273
g1179
aS'stdc headers'
p1274
aS'sys'
p1275
ag1182
tp1276
sS'locale.h'
p1277
(S'c:/marmalade/5.2/s3e/h/std/locale.h'
p1278
g1197
g1182
tp1279
sS'vector'
p1280
(S'c:/marmalade/5.2/s3e/h/std/c++/vector'
p1281
g1178
g1182
tp1282
sS'IwManaged.h'
p1283
(g1109
g1201
g1056
tp1284
sS'LevelList.hpp'
p1285
(g702
g1211
g671
tp1286
sS's3eCompass.h'
p1287
(S'c:/marmalade/5.2/s3e/h/s3eCompass.h'
p1288
g1193
g1182
tp1289
sS'CircularButton.cpp'
p1290
(g676
g1185
g671
tp1291
sS'climits'
p1292
(S'c:/marmalade/5.2/s3e/h/std/c++/climits'
p1293
g1178
g1182
tp1294
sS'ipc.h'
p1295
(S'c:/marmalade/5.2/s3e/h/std/sys/ipc.h'
p1296
g1273
g1182
tp1297
sS'fnmatch.h'
p1298
(S'c:/marmalade/5.2/s3e/h/std/fnmatch.h'
p1299
g1197
g1182
tp1300
sS'IwGxState.h'
p1301
(g1042
g1264
g998
tp1302
sS's3eAudio.h'
p1303
(S'c:/marmalade/5.2/s3e/h/s3eAudio.h'
p1304
g1193
g1182
tp1305
sS's3eSurface.h'
p1306
(S'c:/marmalade/5.2/s3e/h/s3eSurface.h'
p1307
g1193
g1182
tp1308
sS'new'
p1309
(S'c:/marmalade/5.2/s3e/h/std/c++/new'
p1310
g1178
g1182
tp1311
sS's3eWindow.h'
p1312
(S'c:/marmalade/5.2/s3e/h/ext/s3eWindow.h'
p1313
(lp1314
g1179
aS'Extensions'
p1315
ag1182
tp1316
sS'IwBuffer.h'
p1317
(g1123
g1201
g1056
tp1318
sS's3eOSExec.h'
p1319
(S'c:/marmalade/5.2/s3e/h/ext/s3eOSExec.h'
p1320
g1314
g1182
tp1321
sS'IwResHandlerGEO.h'
p1322
(g891
g1246
g874
tp1323
sS'IwGxTransformSW.h'
p1324
(g1009
g1264
g998
tp1325
sS'IwGxMetrics.h'
p1326
(g1017
g1264
g998
tp1327
sS'iwgxfont.config.txt'
p1328
(g839
(lp1329
S"'Marmalade Studio'"
p1330
ag834
ag838
tp1331
sS'gl2platform.h'
p1332
(S'c:/marmalade/5.2/s3e/h/GLES2/gl2platform.h'
p1333
(lp1334
g1179
aS'GL'
p1335
aS'GLES 2.0'
p1336
ag1182
tp1337
sS'IwResManagerClass.h'
p1338
(g992
(lp1339
g808
ag970
ag974
tp1340
sS'queue'
p1341
(S'c:/marmalade/5.2/s3e/h/std/c++/queue'
p1342
g1178
g1182
tp1343
sS'TitleState.hpp'
p1344
(g752
(lp1345
g748
ag671
tp1346
sS'time_1.h'
p1347
(S'c:/marmalade/5.2/s3e/h/std/sys/time.h'
p1348
g1273
g1182
tp1349
sS'Iw2D.h'
p1350
(g832
g1234
g826
tp1351
sS'Input.cpp'
p1352
(g1162
(lp1353
g1154
ag671
tp1354
sS'IwGeomVec2.h'
p1355
(g937
g1188
g910
tp1356
sS'sendfile.h'
p1357
(S'c:/marmalade/5.2/s3e/h/std/sys/sendfile.h'
p1358
g1273
g1182
tp1359
sS'malloc.h'
p1360
(S'c:/marmalade/5.2/s3e/h/std/malloc.h'
p1361
g1197
g1182
tp1362
sS'stdarg.h'
p1363
(S'c:/marmalade/5.2/s3e/h/std/stdarg.h'
p1364
g1197
g1182
tp1365
sS'IwGeomCore.h'
p1366
(g925
g1188
g910
tp1367
sS'endian.h'
p1368
(S'c:/marmalade/5.2/s3e/h/std/endian.h'
p1369
g1197
g1182
tp1370
sS'glob.h'
p1371
(S'c:/marmalade/5.2/s3e/h/std/glob.h'
p1372
g1197
g1182
tp1373
sS'IwModelBuildInfo.h'
p1374
(g902
g1246
g874
tp1375
sS'BuildPieceSet.cpp'
p1376
(g738
(lp1377
g706
ag671
tp1378
sS'fstream'
p1379
(S'c:/marmalade/5.2/s3e/h/std/c++/fstream'
p1380
g1178
g1182
tp1381
sS's3eCamera.h'
p1382
(S'c:/marmalade/5.2/s3e/h/s3eCamera.h'
p1383
g1193
g1182
tp1384
sS'IwGraphicsFuncs.h'
p1385
(g889
g1246
g874
tp1386
sS'IwGraphicsMetrics.h'
p1387
(g897
g1246
g874
tp1388
sS'pthread.h'
p1389
(S'c:/marmalade/5.2/s3e/h/std/pthread.h'
p1390
g1197
g1182
tp1391
sS'IwClip.inl'
p1392
(g1001
g1264
g998
tp1393
sS'IwMemManagerDL.h'
p1394
(g1117
g1201
g1056
tp1395
sS'deque'
p1396
(S'c:/marmalade/5.2/s3e/h/std/c++/deque'
p1397
g1178
g1182
tp1398
sS'IwString.h'
p1399
(g1101
g1201
g1056
tp1400
sS'Game.hpp'
p1401
(g682
(lp1402
g680
ag671
tp1403
sS'cwchar'
p1404
(S'c:/marmalade/5.2/s3e/h/std/c++/cwchar'
p1405
g1178
g1182
tp1406
sS'iwutil.mkf'
p1407
(g1129
g1201
g1131
tp1408
sS'csignal'
p1409
(S'c:/marmalade/5.2/s3e/h/std/c++/csignal'
p1410
g1178
g1182
tp1411
sS'pthread_types.h'
p1412
(S'c:/marmalade/5.2/s3e/h/std/pthread_types.h'
p1413
g1197
g1182
tp1414
sS'pthread_alloc'
p1415
(S'c:/marmalade/5.2/s3e/h/std/c++/pthread_alloc'
p1416
g1178
g1182
tp1417
sS'getopt.h'
p1418
(S'c:/marmalade/5.2/s3e/h/std/getopt.h'
p1419
g1197
g1182
tp1420
sS'IwOptimiseARM.h'
p1421
(g1119
g1201
g1056
tp1422
sS'times.h'
p1423
(S'c:/marmalade/5.2/s3e/h/std/sys/times.h'
p1424
g1273
g1182
tp1425
sS'IwGeomFSphere.h'
p1426
(g962
g1188
g910
tp1427
sS'IwTypes.h'
p1428
(g1113
g1201
g1056
tp1429
sS'SoundEffect.hpp'
p1430
(g1166
(lp1431
g1164
ag671
tp1432
sS'AnimatedSprite.hpp'
p1433
(g802
g1228
g671
tp1434
sS's3eCompression.h'
p1435
(S'c:/marmalade/5.2/s3e/h/s3eCompression.h'
p1436
g1193
g1182
tp1437
sS'MenuState.hpp'
p1438
(g750
g1345
g671
tp1439
sS'langinfo.h'
p1440
(S'c:/marmalade/5.2/s3e/h/std/langinfo.h'
p1441
g1197
g1182
tp1442
sS's3edebugHeap.h'
p1443
(S'c:/marmalade/5.2/s3e/h/ext/s3edebugHeap.h'
p1444
g1314
g1182
tp1445
sS'AirplayVersion.h'
p1446
(S'c:/marmalade/5.2/s3e/h/AirplayVersion.h'
p1447
g1193
g1182
tp1448
sS'gl2extimg.h'
p1449
(S'c:/marmalade/5.2/s3e/h/GLES2/gl2extimg.h'
p1450
g1334
g1182
tp1451
sS'IwGeomSqrt.h'
p1452
(g950
g1188
g910
tp1453
sS'Robot.cpp'
p1454
(g784
g1214
g671
tp1455
sS'syslog.h'
p1456
(S'c:/marmalade/5.2/s3e/h/std/syslog.h'
p1457
g1197
g1182
tp1458
sS'IwGxFontTypes.h'
p1459
(g847
g1329
g838
tp1460
sS'hash_map'
p1461
(S'c:/marmalade/5.2/s3e/h/std/c++/hash_map'
p1462
g1178
g1182
tp1463
sS's3e.mkf'
p1464
(S'c:/marmalade/5.2/s3e/s3e.mkf'
p1465
g1193
(dp1466
tp1467
sS's3eOSReadString.h'
p1468
(S'c:/marmalade/5.2/s3e/h/ext/s3eOSReadString.h'
p1469
g1314
g1182
tp1470
sS'Alien.hpp'
p1471
(g778
g1214
g671
tp1472
sS'Level1.hpp'
p1473
(g704
g1211
g671
tp1474
sS'map'
p1475
(S'c:/marmalade/5.2/s3e/h/std/c++/map'
p1476
g1178
g1182
tp1477
sS'IwOptimiseSpeed.h'
p1478
(g1132
g1201
g1056
tp1479
sS'msl_string.h'
p1480
(S'c:/marmalade/5.2/s3e/h/std/c++/msl_string.h'
p1481
g1178
g1182
tp1482
sS'select.h'
p1483
(S'c:/marmalade/5.2/s3e/h/std/sys/select.h'
p1484
g1273
g1182
tp1485
sS'signal.h'
p1486
(S'c:/marmalade/5.2/s3e/h/std/signal.h'
p1487
g1197
g1182
tp1488
sS'sigcontext.h'
p1489
(S'c:/marmalade/5.2/s3e/h/std/sigcontext.h'
p1490
g1197
g1182
tp1491
sS'BuildPieceSilhouette.cpp'
p1492
(g736
g1377
g671
tp1493
sS's3eClipboard.h'
p1494
(S'c:/marmalade/5.2/s3e/h/s3eClipboard.h'
p1495
g1193
g1182
tp1496
sS'IwGxFuncTable.h'
p1497
(g1028
g1264
g998
tp1498
sS'Touch.hpp'
p1499
(g1158
g1353
g671
tp1500
sS's3eDebug.h'
p1501
(S'c:/marmalade/5.2/s3e/h/s3eDebug.h'
p1502
g1193
g1182
tp1503
sS'socket.h'
p1504
(S'c:/marmalade/5.2/s3e/h/std/sys/socket.h'
p1505
g1273
g1182
tp1506
sS'glext.h'
p1507
(S'c:/marmalade/5.2/s3e/h/GLES/glext.h'
p1508
(lp1509
g1179
aS'GL'
p1510
aS'GLES 1.x'
p1511
ag1182
tp1512
sS'unistd.h'
p1513
(S'c:/marmalade/5.2/s3e/h/std/unistd.h'
p1514
g1197
g1182
tp1515
sS'Condition.hpp'
p1516
(g756
g1345
g671
tp1517
sS'Video.hpp'
p1518
(g772
(lp1519
g770
ag671
tp1520
sS'typeinfo'
p1521
(S'c:/marmalade/5.2/s3e/h/std/c++/typeinfo'
p1522
g1178
g1182
tp1523
sS'Material.cpp'
p1524
(g804
g1228
g671
tp1525
sS'fstream.h'
p1526
(S'c:/marmalade/5.2/s3e/h/std/c++/fstream.h'
p1527
g1178
g1182
tp1528
sS's3ePointer.h'
p1529
(S'c:/marmalade/5.2/s3e/h/s3ePointer.h'
p1530
g1193
g1182
tp1531
sS'iw2d.mkf'
p1532
(g827
g1234
g829
tp1533
sS'CircularButton.hpp'
p1534
(g678
g1185
g671
tp1535
sS's3eGL.h'
p1536
(S'c:/marmalade/5.2/s3e/h/s3eGL.h'
p1537
g1193
g1182
tp1538
sS'IwGeomFVec2.h'
p1539
(g921
g1188
g910
tp1540
sS'IwGeomSVec4.h'
p1541
(g956
g1188
g910
tp1542
sS'poll.h'
p1543
(S'c:/marmalade/5.2/s3e/h/std/poll.h'
p1544
g1197
g1182
tp1545
sS'IwMatAnim.h'
p1546
(g1036
g1264
g998
tp1547
sS'iwgraphics.mkf'
p1548
(g899
g1246
g901
tp1549
sS'IwGeomFVec4.h'
p1550
(g948
g1188
g910
tp1551
sS'IwGx.h'
p1552
(g1038
g1264
g998
tp1553
sS'TestState.cpp'
p1554
(g766
g1345
g671
tp1555
sS'valarray'
p1556
(S'c:/marmalade/5.2/s3e/h/std/c++/valarray'
p1557
g1178
g1182
tp1558
sS'iosfwd'
p1559
(S'c:/marmalade/5.2/s3e/h/std/c++/iosfwd'
p1560
g1178
g1182
tp1561
sS'gl2.h'
p1562
(S'c:/marmalade/5.2/s3e/h/GLES2/gl2.h'
p1563
g1334
g1182
tp1564
sS'shm.h'
p1565
(S'c:/marmalade/5.2/s3e/h/std/sys/shm.h'
p1566
g1273
g1182
tp1567
sS'IwGxRenderSW.h'
p1568
(g1011
g1264
g998
tp1569
sS'stdiostream.h'
p1570
(S'c:/marmalade/5.2/s3e/h/std/c++/stdiostream.h'
p1571
g1178
g1182
tp1572
sS'mem.h'
p1573
(S'c:/marmalade/5.2/s3e/h/std/c++/mem.h'
p1574
g1178
g1182
tp1575
sS'main.cpp'
p1576
(g686
g1402
g671
tp1577
sS'list'
p1578
(S'c:/marmalade/5.2/s3e/h/std/c++/list'
p1579
g1178
g1182
tp1580
sS's3e.config.txt'
p1581
(S'c:/marmalade/5.2/s3e/s3e.config.txt'
p1582
g1193
g1182
tp1583
sS'numeric'
p1584
(S'c:/marmalade/5.2/s3e/h/std/c++/numeric'
p1585
g1178
g1182
tp1586
sS'utime.h'
p1587
(S'c:/marmalade/5.2/s3e/h/std/utime.h'
p1588
g1197
g1182
tp1589
sS'IwGeomMat2D.h'
p1590
(g939
g1188
g910
tp1591
sS'un.h'
p1592
(S'c:/marmalade/5.2/s3e/h/std/sys/un.h'
p1593
g1273
g1182
tp1594
sS'BuildPiece.cpp'
p1595
(g714
g1377
g671
tp1596
sS'IwImage.h'
p1597
(g1146
g1201
g1056
tp1598
sS's3eImagePicker.h'
p1599
(S'c:/marmalade/5.2/s3e/h/ext/s3eImagePicker.h'
p1600
g1314
g1182
tp1601
sS'stdlib.h'
p1602
(S'c:/marmalade/5.2/s3e/h/std/stdlib.h'
p1603
g1197
g1182
tp1604
sS'IwCopyingPtr.h'
p1605
(g1125
g1201
g1056
tp1606
sS'iostream'
p1607
(S'c:/marmalade/5.2/s3e/h/std/c++/iostream'
p1608
g1178
g1182
tp1609
sS'stddef.h'
p1610
(S'c:/marmalade/5.2/s3e/h/std/stddef.h'
p1611
g1197
g1182
tp1612
sS'setjmp_win32.h'
p1613
(S'c:/marmalade/5.2/s3e/h/std/setjmp_win32.h'
p1614
g1197
g1182
tp1615
sS'IwGxPrint.h'
p1616
(g1034
g1264
g998
tp1617
sS'IwGeomSVec2.h'
p1618
(g908
g1188
g910
tp1619
sS'IwModelImporter.h'
p1620
(g893
g1246
g874
tp1621
sS'derbh.mkf'
p1622
(g865
(lp1623
S"'Marmalade Studio'"
p1624
ag856
ag867
tp1625
sS'wchar.h'
p1626
(S'c:/marmalade/5.2/s3e/h/std/wchar.h'
p1627
g1197
g1182
tp1628
sS's3eCameraCapture.h'
p1629
(S'c:/marmalade/5.2/s3e/h/ext/s3eCameraCapture.h'
p1630
g1314
g1182
tp1631
sS'eglext.h'
p1632
(S'c:/marmalade/5.2/s3e/h/EGL/eglext.h'
p1633
(lp1634
g1179
aS'GL'
p1635
aS'EGL'
p1636
ag1182
tp1637
sS'IwModelBlock.h'
p1638
(g904
g1246
g874
tp1639
sS'IwResHandlerImage.h'
p1640
(g982
g1339
g974
tp1641
sS'Sprite.cpp'
p1642
(g796
g1228
g671
tp1643
sS'strstream.h'
p1644
(S'c:/marmalade/5.2/s3e/h/std/c++/strstream.h'
p1645
g1178
g1182
tp1646
sS'IwGLExt.h'
p1647
(g820
g1250
g814
tp1648
sS'IwModelBlockSW.h'
p1649
(g887
g1246
g874
tp1650
sS'app.icf'
p1651
(S'C:/Users/ET/Documents/Universal Story/Universal Story/jj/constructs/data/app.icf'
p1652
g4
(dp1653
tp1654
sS'IwClassFactory.h'
p1655
(g1061
g1201
g1056
tp1656
sS'file.h'
p1657
(S'c:/marmalade/5.2/s3e/h/std/sys/file.h'
p1658
g1273
g1182
tp1659
sS'cstring'
p1660
(S'c:/marmalade/5.2/s3e/h/std/c++/cstring'
p1661
g1178
g1182
tp1662
sS'ShipLevel.hpp'
p1663
(g692
g1211
g671
tp1664
sS'iwutil.config.txt'
p1665
(g1142
g1201
g1056
tp1666
sS's3eSMS.h'
p1667
(S'c:/marmalade/5.2/s3e/h/ext/s3eSMS.h'
p1668
g1314
g1182
tp1669
sS'cstdio'
p1670
(S'c:/marmalade/5.2/s3e/h/std/c++/cstdio'
p1671
g1178
g1182
tp1672
sS'limits.h'
p1673
(S'c:/marmalade/5.2/s3e/h/std/limits.h'
p1674
g1197
g1182
tp1675
sS's3eLibrary.h'
p1676
(S'c:/marmalade/5.2/s3e/h/ext/s3eLibrary.h'
p1677
g1314
g1182
tp1678
sS'iwgx_public.defines.txt'
p1679
(g1050
g1264
g998
tp1680
sS'IwMaterial.h'
p1681
(g1023
g1264
g998
tp1682
sS'GravityHose.cpp'
p1683
(g722
g1377
g671
tp1684
sS'GraphicsObject.cpp'
p1685
(g788
g1228
g671
tp1686
sS'IwGxSurface.h'
p1687
(g1019
g1264
g998
tp1688
sS's3eSocket.h'
p1689
(S'c:/marmalade/5.2/s3e/h/s3eSocket.h'
p1690
g1193
g1182
tp1691
sS'IwAutoFile.h'
p1692
(g1107
g1201
g1056
tp1693
sS's3eVibra.h'
p1694
(S'c:/marmalade/5.2/s3e/h/s3eVibra.h'
p1695
g1193
g1182
tp1696
sS'poll_1.h'
p1697
(S'c:/marmalade/5.2/s3e/h/std/sys/poll.h'
p1698
g1273
g1182
tp1699
sS's3eThread.h'
p1700
(S'c:/marmalade/5.2/s3e/h/s3eThread.h'
p1701
g1193
g1182
tp1702
sS'ucontext.h'
p1703
(S'c:/marmalade/5.2/s3e/h/std/ucontext.h'
p1704
g1197
g1182
tp1705
sS'time.h'
p1706
(S'c:/marmalade/5.2/s3e/h/std/time.h'
p1707
g1197
g1182
tp1708
sS's3eSoundRecord.h'
p1709
(S'c:/marmalade/5.2/s3e/h/s3eSoundRecord.h'
p1710
g1193
g1182
tp1711
sS'IwFibre.h'
p1712
(g1095
g1201
g1056
tp1713
sS's3eVersion.h'
p1714
(S'c:/marmalade/5.2/s3e/h/s3eVersion.h'
p1715
g1193
g1182
tp1716
sS'Video.cpp'
p1717
(g774
g1519
g671
tp1718
sS'Puzzle.hpp'
p1719
(g716
g1377
g671
tp1720
sS'IwGxFontGlyph.h'
p1721
(g849
g1329
g838
tp1722
sS's3eTypes.h'
p1723
(S'c:/marmalade/5.2/s3e/h/s3eTypes.h'
p1724
g1193
g1182
tp1725
sS'signal_2.h'
p1726
(S'c:/marmalade/5.2/s3e/h/std/c++/signal.h'
p1727
g1178
g1182
tp1728
sS'termios.h'
p1729
(S'c:/marmalade/5.2/s3e/h/std/termios.h'
p1730
g1197
g1182
tp1731
sS'BuildPieceSet.hpp'
p1732
(g740
g1377
g671
tp1733
sS'IwGraphicsState.h'
p1734
(g875
g1246
g874
tp1735
sS'slist'
p1736
(S'c:/marmalade/5.2/s3e/h/std/c++/slist'
p1737
g1178
g1182
tp1738
sS'cstdlib'
p1739
(S'c:/marmalade/5.2/s3e/h/std/c++/cstdlib'
p1740
g1178
g1182
tp1741
sS's3eLocation.h'
p1742
(S'c:/marmalade/5.2/s3e/h/s3eLocation.h'
p1743
g1193
g1182
tp1744
sS'Input.hpp'
p1745
(g1156
g1353
g671
tp1746
sS'IwMemBucketHelpers.h'
p1747
(g1073
g1201
g1056
tp1748
sS's3eHash.h'
p1749
(S'c:/marmalade/5.2/s3e/h/s3eHash.h'
p1750
g1193
g1182
tp1751
sS'typeinfo.h'
p1752
(S'c:/marmalade/5.2/s3e/h/std/c++/typeinfo.h'
p1753
g1178
g1182
tp1754
sS'IwGeomFMat.h'
p1755
(g964
g1188
g910
tp1756
sS'IwModelBlockGen.h'
p1757
(g881
g1246
g874
tp1758
sS'Level.hpp'
p1759
(g698
g1211
g671
tp1760
sS'derbh.h'
p1761
(g868
g1623
g860
tp1762
sS'IwMenu.h'
p1763
(g1111
g1201
g1056
tp1764
sS'IwResHandlerITX.h'
p1765
(g988
g1339
g974
tp1766
sS'RobotBuildingPuzzle.cpp'
p1767
(g708
g1377
g671
tp1768
sS'IwArray.h'
p1769
(g1093
g1201
g1056
tp1770
sS'IwUTF8.h'
p1771
(g1103
g1201
g1056
tp1772
sS'math_rvct.h'
p1773
(S'c:/marmalade/5.2/s3e/h/std/math_rvct.h'
p1774
g1197
g1182
tp1775
sS'IwUtil.h'
p1776
(g1075
g1201
g1056
tp1777
sS'wctype.h'
p1778
(S'c:/marmalade/5.2/s3e/h/std/wctype.h'
p1779
g1197
g1182
tp1780
sS'Quad.hpp'
p1781
(g792
g1228
g671
tp1782
sS'cstddef'
p1783
(S'c:/marmalade/5.2/s3e/h/std/c++/cstddef'
p1784
g1178
g1182
tp1785
sS'assert.h'
p1786
(S'c:/marmalade/5.2/s3e/h/std/assert.h'
p1787
g1197
g1182
tp1788
sS'mman.h'
p1789
(S'c:/marmalade/5.2/s3e/h/std/sys/mman.h'
p1790
g1273
g1182
tp1791
sS'IwRandom.h'
p1792
(g1115
g1201
g1056
tp1793
sS'libgen.h'
p1794
(S'c:/marmalade/5.2/s3e/h/std/libgen.h'
p1795
g1197
g1182
tp1796
sS'utsname.h'
p1797
(S'c:/marmalade/5.2/s3e/h/std/sys/utsname.h'
p1798
g1273
g1182
tp1799
sS'wait.h'
p1800
(S'c:/marmalade/5.2/s3e/h/std/sys/wait.h'
p1801
g1273
g1182
tp1802
sS'param.h'
p1803
(S'c:/marmalade/5.2/s3e/h/std/sys/param.h'
p1804
g1273
g1182
tp1805
sS'IwDivide.h'
p1806
(g1089
g1201
g1056
tp1807
sS'IwResManager.h'
p1808
(g972
g1339
g974
tp1809
sS'ostream'
p1810
(S'c:/marmalade/5.2/s3e/h/std/c++/ostream'
p1811
g1178
g1182
tp1812
sS'cwctype'
p1813
(S'c:/marmalade/5.2/s3e/h/std/c++/cwctype'
p1814
g1178
g1182
tp1815
sS'set'
p1816
(S'c:/marmalade/5.2/s3e/h/std/c++/set'
p1817
g1178
g1182
tp1818
sS'IwGeomSQuat.h'
p1819
(g952
g1188
g910
tp1820
sS'locale'
p1821
(S'c:/marmalade/5.2/s3e/h/std/c++/locale'
p1822
g1178
g1182
tp1823
sS'RubblePuzzle.hpp'
p1824
(g730
g1377
g671
tp1825
sS'ScrollingLayer.hpp'
p1826
(g744
(lp1827
g742
ag671
tp1828
sS'IwList.h'
p1829
(g1134
g1201
g1056
tp1830
sS'Level1.cpp'
p1831
(g694
g1211
g671
tp1832
sS'inttypes.h'
p1833
(S'c:/marmalade/5.2/s3e/h/std/inttypes.h'
p1834
g1197
g1182
tp1835
sS'dirent.h'
p1836
(S'c:/marmalade/5.2/s3e/h/std/dirent.h'
p1837
g1197
g1182
tp1838
sS'IwGeomVec3.h'
p1839
(g954
g1188
g910
tp1840
sS'ScrollingLayer.cpp'
p1841
(g746
g1827
g671
tp1842
sS'IwMath.h'
p1843
(g1071
g1201
g1056
tp1844
sS'IwGeomQuat.h'
p1845
(g927
g1188
g910
tp1846
sS'glplatform.h'
p1847
(S'c:/marmalade/5.2/s3e/h/GLES/glplatform.h'
p1848
g1509
g1182
tp1849
sS'BuildPieceSilhouette.hpp'
p1850
(g726
g1377
g671
tp1851
sS'iwgl.config.txt'
p1852
(g815
g1250
g814
tp1853
sS'bitset'
p1854
(S'c:/marmalade/5.2/s3e/h/std/c++/bitset'
p1855
g1178
g1182
tp1856
sS'alloca.h'
p1857
(S'c:/marmalade/5.2/s3e/h/std/alloca.h'
p1858
g1197
g1182
tp1859
sS'State.hpp'
p1860
(g754
g1345
g671
tp1861
sS'IwResHandler.h'
p1862
(g977
g1339
g974
tp1863
sS'IwResHandlerMTL.h'
p1864
(g1005
g1264
g998
tp1865
sS'RobotBuildingPuzzle.hpp'
p1866
(g710
g1377
g671
tp1867
sS'limits'
p1868
(S'c:/marmalade/5.2/s3e/h/std/c++/limits'
p1869
g1178
g1182
tp1870
sS'IwGeomBBox.h'
p1871
(g933
g1188
g910
tp1872
sS's3eContacts.h'
p1873
(S'c:/marmalade/5.2/s3e/h/s3eContacts.h'
p1874
g1193
g1182
tp1875
sS's3eLicense.h'
p1876
(S'c:/marmalade/5.2/s3e/h/s3eLicense.h'
p1877
g1193
g1182
tp1878
sS'RubblePuzzle.cpp'
p1879
(g728
g1377
g671
tp1880
sS'iwgx.config.txt'
p1881
(g1032
g1264
g998
tp1882
sS'IwTextParser.h'
p1883
(g1065
g1201
g1056
tp1884
sS's3eTimer.h'
p1885
(S'c:/marmalade/5.2/s3e/h/s3eTimer.h'
p1886
g1193
g1182
tp1887
sS'IwGeomVec.h'
p1888
(g917
g1188
g910
tp1889
sS'IwSerialise.h'
p1890
(g1127
g1201
g1056
tp1891
sS'cstdarg'
p1892
(S'c:/marmalade/5.2/s3e/h/std/c++/cstdarg'
p1893
g1178
g1182
tp1894
sS'IwModelBlockGL.h'
p1895
(g879
g1246
g874
tp1896
sS'gl2ext.h'
p1897
(S'c:/marmalade/5.2/s3e/h/GLES2/gl2ext.h'
p1898
g1334
g1182
tp1899
sS'IwChar.h'
p1900
(g1077
g1201
g1056
tp1901
sS's3eSound.h'
p1902
(S'c:/marmalade/5.2/s3e/h/s3eSound.h'
p1903
g1193
g1182
tp1904
sS'IwTexture.h'
p1905
(g1007
g1264
g998
tp1906
sS'TitleState.cpp'
p1907
(g764
g1345
g671
tp1908
sS's3eIOSBackgroundAudio.h'
p1909
(S'c:/marmalade/5.2/s3e/h/ext/s3eIOSBackgroundAudio.h'
p1910
g1314
g1182
tp1911
sS'exception.h'
p1912
(S'c:/marmalade/5.2/s3e/h/std/c++/exception.h'
p1913
g1178
g1182
tp1914
sS'iwgeom.config.txt'
p1915
(g966
g1188
g910
tp1916
sS'iwgx.mkf'
p1917
(g1025
g1264
g1027
tp1918
sS'dzio.h'
p1919
(g863
g1623
g860
tp1920
sS'gl.h'
p1921
(S'c:/marmalade/5.2/s3e/h/GLES/gl.h'
p1922
g1509
g1182
tp1923
sS'IwRuntime.h'
p1924
(g1063
g1201
g1056
tp1925
sS'BuildPiece.hpp'
p1926
(g734
g1377
g671
tp1927
sS'iwgl.mkf'
p1928
(g817
g1250
g819
tp1929
sS'IwColour.h'
p1930
(g996
g1264
g998
tp1931
sS'ostream.h'
p1932
(S'c:/marmalade/5.2/s3e/h/std/c++/ostream.h'
p1933
g1178
g1182
tp1934
sS'types.h'
p1935
(S'c:/marmalade/5.2/s3e/h/std/sys/types.h'
p1936
g1273
g1182
tp1937
sS'ifaddrs.h'
p1938
(S'c:/marmalade/5.2/s3e/h/std/ifaddrs.h'
p1939
g1197
g1182
tp1940
sS'strstream'
p1941
(S'c:/marmalade/5.2/s3e/h/std/c++/strstream'
p1942
g1178
g1182
tp1943
sS'exception'
p1944
(S'c:/marmalade/5.2/s3e/h/std/c++/exception'
p1945
g1178
g1182
tp1946
sS'rlocks.h'
p1947
(S'c:/marmalade/5.2/s3e/h/std/c++/rlocks.h'
p1948
g1178
g1182
tp1949
sS'EscapePodBuildingPuzzle.cpp'
p1950
(g720
g1377
g671
tp1951
sS'ioctl.h'
p1952
(S'c:/marmalade/5.2/s3e/h/std/sys/ioctl.h'
p1953
g1273
g1182
tp1954
sS'rope'
p1955
(S'c:/marmalade/5.2/s3e/h/std/c++/rope'
p1956
g1178
g1182
tp1957
sS'IwResHandlerGROUP.h'
p1958
(g990
g1339
g974
tp1959
sS'IwEvent.h'
p1960
(g1083
g1201
g1056
tp1961
sS'IwOptimiseSize.h'
p1962
(g1067
g1201
g1056
tp1963
sS'iwgxfont_public.defines.txt'
p1964
(g845
g1329
g838
tp1965
sS'iconv.h'
p1966
(S'c:/marmalade/5.2/s3e/h/std/iconv.h'
p1967
g1197
g1182
tp1968
sS's3eDevice.h'
p1969
(S'c:/marmalade/5.2/s3e/h/s3eDevice.h'
p1970
g1193
g1182
tp1971
sS'IwGeomSphere.h'
p1972
(g911
g1188
g910
tp1973
sS'cctype'
p1974
(S'c:/marmalade/5.2/s3e/h/std/c++/cctype'
p1975
g1178
g1182
tp1976
sS's3eConfig.h'
p1977
(S'c:/marmalade/5.2/s3e/h/s3eConfig.h'
p1978
g1193
g1182
tp1979
sS'IwHashString.h'
p1980
(g1150
g1201
g1056
tp1981
sS'stat.h'
p1982
(S'c:/marmalade/5.2/s3e/h/std/sys/stat.h'
p1983
g1273
g1182
tp1984
sS'byteswap.h'
p1985
(S'c:/marmalade/5.2/s3e/h/std/byteswap.h'
p1986
g1197
g1182
tp1987
sS'iwresmanager.mkf'
p1988
(g979
g1339
g981
tp1989
sS'IwUtilInitTerm.h'
p1990
(g1057
g1201
g1056
tp1991
sS'pthread_1.h'
p1992
(S'c:/marmalade/5.2/s3e/h/std/c++/pthread.h'
p1993
g1178
g1182
tp1994
sS'IwMemBucket.h'
p1995
(g1152
g1201
g1056
tp1996
sS'complex'
p1997
(S'c:/marmalade/5.2/s3e/h/std/c++/complex'
p1998
g1178
g1182
tp1999
sS'IwGxMotionBlur.h'
p2000
(g1021
g1264
g998
tp2001
sS'algorithm'
p2002
(S'c:/marmalade/5.2/s3e/h/std/c++/algorithm'
p2003
g1178
g1182
tp2004
sS's3e.icf'
p2005
(S'c:/marmalade/5.2/s3e/s3e.icf'
p2006
g1193
g1182
tp2007
sS'IwVariableBitField.h'
p2008
(g1138
g1201
g1056
tp2009
sS'sem.h'
p2010
(S'c:/marmalade/5.2/s3e/h/std/sys/sem.h'
p2011
g1273
g1182
tp2012
sS'IwGxFontState.h'
p2013
(g843
g1329
g838
tp2014
sS'stdio.h'
p2015
(S'c:/marmalade/5.2/s3e/h/std/stdio.h'
p2016
g1197
g1182
tp2017
sS'ios'
p2018
(S'c:/marmalade/5.2/s3e/h/std/c++/ios'
p2019
g1178
g1182
tp2020
sS'IwGxDrawSW.h'
p2021
(g1030
g1264
g998
tp2022
sS'ShipBuildingArea.hpp'
p2023
(g700
g1211
g671
tp2024
sS'stack'
p2025
(S'c:/marmalade/5.2/s3e/h/std/c++/stack'
p2026
g1178
g1182
tp2027
sS'MusicPlayer.cpp'
p2028
(g1172
g1431
g671
tp2029
sS'new.h'
p2030
(S'c:/marmalade/5.2/s3e/h/std/c++/new.h'
p2031
g1178
g1182
tp2032
sS's3eEMail.h'
p2033
(S'c:/marmalade/5.2/s3e/h/ext/s3eEMail.h'
p2034
g1314
g1182
tp2035
sS's3eVideo.h'
p2036
(S'c:/marmalade/5.2/s3e/h/s3eVideo.h'
p2037
g1193
g1182
tp2038
sS'pwd.h'
p2039
(S'c:/marmalade/5.2/s3e/h/std/pwd.h'
p2040
g1197
g1182
tp2041
sS'IwClip.h'
p2042
(g1048
g1264
g998
tp2043
sS'iwresmanager.config.txt'
p2044
(g984
g1339
g974
tp2045
sS'IwGxShaderTechnique.h'
p2046
(g1013
g1264
g998
tp2047
sS'IwCore.h'
p2048
(g1054
g1201
g1056
tp2049
sS'cfloat'
p2050
(S'c:/marmalade/5.2/s3e/h/std/c++/cfloat'
p2051
g1178
g1182
tp2052
sS'IwGxFontPreparedData.h'
p2053
(g836
g1329
g838
tp2054
sS'IwAllocator.h'
p2055
(g1140
g1201
g1056
tp2056
sS'Touch.cpp'
p2057
(g1160
g1353
g671
tp2058
sS'QuadButton.cpp'
p2059
(g674
g1185
g671
tp2060
sS'IwPath.h'
p2061
(g1105
g1201
g1056
tp2062
sS'DerbhAutoInit.cpp'
p2063
(g861
g1623
g860
tp2064
sS'iwgxfont.mkf'
p2065
(g851
g1329
g853
tp2066
sS'GravityHose.hpp'
p2067
(g712
g1377
g671
tp2068
sS's3eAccelerometer.h'
p2069
(S'c:/marmalade/5.2/s3e/h/s3eAccelerometer.h'
p2070
g1193
g1182
tp2071
sS'setjmp.h'
p2072
(S'c:/marmalade/5.2/s3e/h/std/setjmp.h'
p2073
g1197
g1182
tp2074
sS'iwgraphics.config.txt'
p2075
(g877
g1246
g874
tp2076
sS'IwFile.h'
p2077
(g1144
g1201
g1056
tp2078
sS'IwTextParseable.h'
p2079
(g1091
g1201
g1056
tp2080
sS'istream.h'
p2081
(S'c:/marmalade/5.2/s3e/h/std/c++/istream.h'
p2082
g1178
g1182
tp2083
sS'stdint.h'
p2084
(S'c:/marmalade/5.2/s3e/h/std/stdint.h'
p2085
g1197
g1182
tp2086
sS'semaphore.h'
p2087
(S'c:/marmalade/5.2/s3e/h/std/semaphore.h'
p2088
g1197
g1182
tp2089
sS'Quad.cpp'
p2090
(g790
g1228
g671
tp2091
sS'ctime'
p2092
(S'c:/marmalade/5.2/s3e/h/std/c++/ctime'
p2093
g1178
g1182
tp2094
sS'sstream'
p2095
(S'c:/marmalade/5.2/s3e/h/std/c++/sstream'
p2096
g1178
g1182
tp2097
sS'GraphicsObject.hpp'
p2098
(g798
g1228
g671
tp2099
sS'IwGeomFBBox.h'
p2100
(g929
g1188
g910
tp2101
sS'IwModelExt.h'
p2102
(g883
g1246
g874
tp2103
sS'IwGxFontContainer.h'
p2104
(g841
g1329
g838
tp2105
sS'IwGeomSVec3.h'
p2106
(g913
g1188
g910
tp2107
sS'AnimatedSprite.cpp'
p2108
(g794
g1228
g671
tp2109
sS'PlayState.hpp'
p2110
(g758
g1345
g671
tp2111
sS'derbh.config.txt'
p2112
(g858
g1623
g860
tp2113
sS's3eExt.h'
p2114
(S'c:/marmalade/5.2/s3e/h/s3eExt.h'
p2115
g1193
g1182
tp2116
sS'IwGeomFVec3.h'
p2117
(g919
g1188
g910
tp2118
sS'streambuf'
p2119
(S'c:/marmalade/5.2/s3e/h/std/c++/streambuf'
p2120
g1178
g1182
tp2121
sS's3eMetrics.h'
p2122
(S'c:/marmalade/5.2/s3e/h/ext/s3eMetrics.h'
p2123
g1314
g1182
tp2124
sS'IwGxFont.h'
p2125
(g854
g1329
g838
tp2126
sS's3eSecureStorage.h'
p2127
(S'c:/marmalade/5.2/s3e/h/s3eSecureStorage.h'
p2128
g1193
g1182
tp2129
sS'string.h'
p2130
(S'c:/marmalade/5.2/s3e/h/std/string.h'
p2131
g1197
g1182
tp2132
sS'IwResource.h'
p2133
(g1148
g1201
g1056
tp2134
sS'SoundEffect.cpp'
p2135
(g1168
g1431
g671
tp2136
sS'IwGxDebug.h'
p2137
(g1044
g1264
g998
tp2138
sS'float.h'
p2139
(S'c:/marmalade/5.2/s3e/h/std/float.h'
p2140
g1197
g1182
tp2141
sS'iomanip.h'
p2142
(S'c:/marmalade/5.2/s3e/h/std/c++/iomanip.h'
p2143
g1178
g1182
tp2144
sS'IwKeymap.h'
p2145
(g1121
g1201
g1056
tp2146
sS'IwDebug.h'
p2147
(g1085
g1201
g1056
tp2148
sS'IwOptimiseThumb.h'
p2149
(g1081
g1201
g1056
tp2150
sS'IwGeomMenu.h'
p2151
(g944
g1188
g910
tp2152
sS'PlayState.cpp'
p2153
(g760
g1345
g671
tp2154
sS'IwDivTable.h'
p2155
(g1136
g1201
g1056
tp2156
sS'ctype.h'
p2157
(S'c:/marmalade/5.2/s3e/h/std/ctype.h'
p2158
g1197
g1182
tp2159
sS'IwGeomMat.h'
p2160
(g968
g1188
g910
tp2161
sS'IwResGroup.h'
p2162
(g986
g1339
g974
tp2163
sS'signal_1.h'
p2164
(S'c:/marmalade/5.2/s3e/h/std/sys/signal.h'
p2165
g1273
g1182
tp2166
sS'functional'
p2167
(S'c:/marmalade/5.2/s3e/h/std/c++/functional'
p2168
g1178
g1182
tp2169
sS'EscapePodBuildingPuzzle.hpp'
p2170
(g724
g1377
g671
tp2171
sS'FlickableObject.hpp'
p2172
(g718
g1377
g671
tp2173
sS'IwManagedList.h'
p2174
(g1079
g1201
g1056
tp2175
sS'MusicPlayer.hpp'
p2176
(g1170
g1431
g671
tp2177
sS'Game.cpp'
p2178
(g684
g1402
g671
tp2179
sS'prctl.h'
p2180
(S'c:/marmalade/5.2/s3e/h/std/sys/prctl.h'
p2181
g1273
g1182
tp2182
sS'IwGxStream.h'
p2183
(g999
g1264
g998
tp2184
sS'utility'
p2185
(S'c:/marmalade/5.2/s3e/h/std/c++/utility'
p2186
g1178
g1182
tp2187
sS'IwDebugPrim.h'
p2188
(g1046
g1264
g998
tp2189
sS'Material.hpp'
p2190
(g800
g1228
g671
tp2191
sS'FlickableObject.cpp'
p2192
(g732
g1377
g671
tp2193
sS'IwGeomLegacy.h'
p2194
(g958
g1188
g910
tp2195
sS'IwTPage.h'
p2196
(g1003
g1264
g998
tp2197
sS'IwResSerialise.h'
p2198
(g975
g1339
g974
tp2199
sS's3eCrypto.h'
p2200
(S'c:/marmalade/5.2/s3e/h/s3eCrypto.h'
p2201
g1193
g1182
tp2202
sS's3eKeyboard.h'
p2203
(S'c:/marmalade/5.2/s3e/h/s3eKeyboard.h'
p2204
g1193
g1182
tp2205
sS'memory'
p2206
(S'c:/marmalade/5.2/s3e/h/std/c++/memory'
p2207
g1178
g1182
tp2208
sS'fcntl.h'
p2209
(S'c:/marmalade/5.2/s3e/h/std/fcntl.h'
p2210
g1197
g1182
tp2211
sS'IwGraphics.h'
p2212
(g885
g1246
g874
tp2213
sS'IwModelBuilder.h'
p2214
(g895
g1246
g874
tp2215
sS'memory.h'
p2216
(S'c:/marmalade/5.2/s3e/h/std/memory.h'
p2217
g1197
g1182
tp2218
sS'Alien.cpp'
p2219
(g780
g1214
g671
tp2220
sS'egl.h'
p2221
(S'c:/marmalade/5.2/s3e/h/EGL/egl.h'
p2222
g1634
g1182
tp2223
sS'IwGeomIntersect.h'
p2224
(g915
g1188
g910
tp2225
sS'IwTextParserITX.h'
p2226
(g1097
g1201
g1056
tp2227
sS'egl_1.h'
p2228
(S'c:/marmalade/5.2/s3e/h/GLES/egl.h'
p2229
g1509
g1182
tp2230
sS'ShipBuildingArea.cpp'
p2231
(g690
g1211
g671
tp2232
sS'MenuState.cpp'
p2233
(g762
g1345
g671
tp2234
sS'TestState.hpp'
p2235
(g768
g1345
g671
tp2236
sS'stl_user_config.h'
p2237
(S'c:/marmalade/5.2/s3e/h/std/c++/stl_user_config.h'
p2238
g1178
g1182
tp2239
sS'IwProfileMenu.h'
p2240
(g1069
g1201
g1056
tp2241
sS'MarmaladeVersion.h'
p2242
(S'c:/marmalade/5.2/s3e/h/MarmaladeVersion.h'
p2243
g1193
g1182
tp2244
sS'ios.h'
p2245
(S'c:/marmalade/5.2/s3e/h/std/c++/ios.h'
p2246
g1178
g1182
tp2247
sS'hash_set'
p2248
(S'c:/marmalade/5.2/s3e/h/std/c++/hash_set'
p2249
g1178
g1182
tp2250
sS'IwGeomFQuat.h'
p2251
(g923
g1188
g910
tp2252
sS'eglplatform.h'
p2253
(S'c:/marmalade/5.2/s3e/h/EGL/eglplatform.h'
p2254
g1634
g1182
tp2255
sS'cmath'
p2256
(S'c:/marmalade/5.2/s3e/h/std/c++/cmath'
p2257
g1178
g1182
tp2258
sS'math_gcc.h'
p2259
(S'c:/marmalade/5.2/s3e/h/std/math_gcc.h'
p2260
g1197
g1182
tp2261
sS's3eMemory.h'
p2262
(S'c:/marmalade/5.2/s3e/h/s3eMemory.h'
p2263
g1193
g1182
tp2264
sS'strings.h'
p2265
(S'c:/marmalade/5.2/s3e/h/std/strings.h'
p2266
g1197
g1182
tp2267
sS's3eFile.h'
p2268
(S'c:/marmalade/5.2/s3e/h/s3eFile.h'
p2269
g1193
g1182
tp2270
sS'type_traits.h'
p2271
(S'c:/marmalade/5.2/s3e/h/std/c++/type_traits.h'
p2272
g1178
g1182
tp2273
sS'IwGxTypes.h'
p2274
(g1015
g1264
g998
tp2275
sS'cerrno'
p2276
(S'c:/marmalade/5.2/s3e/h/std/c++/cerrno'
p2277
g1178
g1182
tp2278
sS'QuadButton.hpp'
p2279
(g669
g1185
g671
tp2280
sS'resource.h'
p2281
(S'c:/marmalade/5.2/s3e/h/std/sys/resource.h'
p2282
g1273
g1182
tp2283
sS'clocale'
p2284
(S'c:/marmalade/5.2/s3e/h/std/c++/clocale'
p2285
g1178
g1182
tp2286
sS'csetjmp'
p2287
(S'c:/marmalade/5.2/s3e/h/std/c++/csetjmp'
p2288
g1178
g1182
tp2289
sS'netdb.h'
p2290
(S'c:/marmalade/5.2/s3e/h/std/netdb.h'
p2291
g1197
g1182
tp2292
sS's3eAndroidJNI.h'
p2293
(S'c:/marmalade/5.2/s3e/h/ext/s3eAndroidJNI.h'
p2294
g1314
g1182
tp2295
sS'stdexcept'
p2296
(S'c:/marmalade/5.2/s3e/h/std/c++/stdexcept'
p2297
g1178
g1182
tp2298
sS'math.h'
p2299
(S'c:/marmalade/5.2/s3e/h/std/math.h'
p2300
g1197
g1182
tp2301
sS'stdbool.h'
p2302
(S'c:/marmalade/5.2/s3e/h/std/stdbool.h'
p2303
g1197
g1182
tp2304
sS'uio.h'
p2305
(S'c:/marmalade/5.2/s3e/h/std/sys/uio.h'
p2306
g1273
g1182
tp2307
sS'IwUncopyable.h'
p2308
(g1099
g1201
g1056
tp2309
ssS'tests'
p2310
(lp2311
sS'project_name'
p2312
g228
sS'root_file'
p2313
g96
sS'current_root'
p2314
S'C:/Users/ET/Documents/Universal Story/Universal Story/jj/constructs'
p2315
sS'dependencies'
p2316
(lp2317
sS'include_paths'
p2318
(lp2319
S'C:/Users/ET/Documents/Universal Story/Universal Story/jj/constructs/source'
p2320
aS'c:/marmalade/5.2/modules/iwutil/h'
p2321
aS'c:/marmalade/5.2/modules/derbh/h'
p2322
aS'c:/marmalade/5.2/modules/iwgeom/h'
p2323
aS'c:/marmalade/5.2/modules/iwresmanager/h'
p2324
aS'c:/marmalade/5.2/modules/iwgl/h'
p2325
aS'c:/marmalade/5.2/modules/iwgx/h'
p2326
aS'c:/marmalade/5.2/modules/iwgraphics/h'
p2327
aS'c:/marmalade/5.2/modules/iwgxfont/h'
p2328
aS'c:/marmalade/5.2/modules/iw2d/h'
p2329
aS'c:/marmalade/5.2/s3e/h'
p2330
aS'c:/marmalade/5.2/s3e/h/ext'
p2331
aS'c:/marmalade/5.2/s3e/h/std'
p2332
aS'c:/marmalade/5.2/s3e/h/std/c++'
p2333
aS'c:/marmalade/5.2/s3e/h/ext_legacy'
p2334
aS'c:/marmalade/5.2/s3e/h/legacy'
p2335
asS'weak_frameworks'
p2336
(lp2337
sS'extprojects'
p2338
(dp2339
sg414
(dp2340
g408
(lp2341
(S'C:/Users/ET/Documents/Universal Story/Universal Story/jj/constructs/data'
p2342
S'.'
p2343
I0
tp2344
asS'GLES1'
p2345
(lp2346
(S'C:/Users/ET/Documents/Universal Story/Universal Story/jj/constructs/data/ConstructsResources-gles1.dz'
p2347
S'ConstructsResources-gles1.dz'
p2348
I0
tp2349
assS'macro_types'
p2350
(dp2351
g367
I1
sg368
I0
sg369
I0
sg370
I0
sg371
I0
sg372
I0
sg374
I0
sg375
I0
sg376
I0
sg377
I0
sg379
I0
sg381
I0
sg382
I0
sg383
I0
sg384
I1
sg385
I0
sg386
I0
sg387
I0
sg388
I01
sg389
I1
sg390
I0
sg391
I0
sg392
I0
ssS'commands'
p2352
(lp2353
sg417
(g662
S'VC10'
p2354
S'X86ARM'
p2355
tp2356
sS'build_libs'
p2357
(dp2358
sS'frameworks'
p2359
(lp2360
sS'extensions'
p2361
(dp2362
sS'target_name_debug'
p2363
g228
sS'builders'
p2364
(dp2365
S'.S'
p2366
(dp2367
S'rvct'
p2368
(lp2369
S'.obj'
p2370
aS'echo ARM Assembling(RVCT) ${SOURCE}...'
p2371
aS'c:/marmalade/5.2/s3e\\rvct\\bin\\armasm -o ${TARGET} ${SOURCE}'
p2372
asg315
(lp2373
g2370
aS'echo ARM Assembling(GCC) ${SOURCE}...'
p2374
aS'c:/marmalade/5.2/s3e\\gcc\\bin\\arm-none-eabi-gcc -c -o ${TARGET} ${SOURCE}'
p2375
asS'ppu'
p2376
(lp2377
S'.a'
p2378
aS'echo PPU Assembling(SNC) ${SOURCE}...'
p2379
aS'c:/marmalade/5.2/s3e\\rvct\\bin\\armasm -o ${TARGET} ${SOURCE}'
p2380
assS'.s'
p2381
g2367
sS'.vp'
p2382
(lp2383
NaS'"C:/Marmalade/5.2/s3e/python/python.exe" "c:/marmalade/5.2/modules/iwgx/tools/compile_shaders.py" ${SOURCE}'
p2384
assg419
g0
sbtp2385
.